	.cpu arm7tdmi
	.fpu softvfp
	.eabi_attribute 20, 1
	.eabi_attribute 21, 1
	.eabi_attribute 23, 3
	.eabi_attribute 24, 1
	.eabi_attribute 25, 1
	.eabi_attribute 26, 1
	.eabi_attribute 30, 6
	.eabi_attribute 34, 0
	.eabi_attribute 18, 4
	.arm
	.syntax divided
	.file	"sumo.c"
	.text
.Ltext0:
	.cfi_sections	.debug_frame
	.align	2
	.global	__aeabi_idiv
	.type	__aeabi_idiv, %function
__aeabi_idiv:
.LFB0:
	.file 1 "../ARMlib.h"
	.loc 1 29 0
	.cfi_startproc
	@ Function supports interworking.
	@ args = 0, pretend = 0, frame = 0
	@ frame_needed = 0, uses_anonymous_args = 0
	@ link register save eliminated.
	.loc 1 29 0
	mov	r0, r0	@ nop
	bx	lr
	.cfi_endproc
.LFE0:
	.size	__aeabi_idiv, .-__aeabi_idiv
	.align	2
	.global	__aeabi_i2d
	.type	__aeabi_i2d, %function
__aeabi_i2d:
.LFB1:
	.loc 1 30 0
	.cfi_startproc
	@ Function supports interworking.
	@ args = 0, pretend = 0, frame = 0
	@ frame_needed = 0, uses_anonymous_args = 0
	@ link register save eliminated.
	.loc 1 30 0
	mov	r0, r0	@ nop
	bx	lr
	.cfi_endproc
.LFE1:
	.size	__aeabi_i2d, .-__aeabi_i2d
	.align	2
	.global	__aeabi_uidivmod
	.type	__aeabi_uidivmod, %function
__aeabi_uidivmod:
.LFB2:
	.loc 1 31 0
	.cfi_startproc
	@ Function supports interworking.
	@ args = 0, pretend = 0, frame = 0
	@ frame_needed = 0, uses_anonymous_args = 0
	@ link register save eliminated.
	.loc 1 31 0
	mov	r0, r0	@ nop
	bx	lr
	.cfi_endproc
.LFE2:
	.size	__aeabi_uidivmod, .-__aeabi_uidivmod
	.align	2
	.global	__aeabi_fcmpge
	.type	__aeabi_fcmpge, %function
__aeabi_fcmpge:
.LFB3:
	.loc 1 32 0
	.cfi_startproc
	@ Function supports interworking.
	@ args = 0, pretend = 0, frame = 0
	@ frame_needed = 0, uses_anonymous_args = 0
	@ link register save eliminated.
	.loc 1 32 0
	mov	r0, r0	@ nop
	bx	lr
	.cfi_endproc
.LFE3:
	.size	__aeabi_fcmpge, .-__aeabi_fcmpge
	.align	2
	.global	__aeabi_i2f
	.type	__aeabi_i2f, %function
__aeabi_i2f:
.LFB4:
	.loc 1 33 0
	.cfi_startproc
	@ Function supports interworking.
	@ args = 0, pretend = 0, frame = 0
	@ frame_needed = 0, uses_anonymous_args = 0
	@ link register save eliminated.
	.loc 1 33 0
	mov	r0, r0	@ nop
	bx	lr
	.cfi_endproc
.LFE4:
	.size	__aeabi_i2f, .-__aeabi_i2f
	.align	2
	.global	__aeabi_ddiv
	.type	__aeabi_ddiv, %function
__aeabi_ddiv:
.LFB5:
	.loc 1 37 0
	.cfi_startproc
	@ Function supports interworking.
	@ args = 0, pretend = 0, frame = 0
	@ frame_needed = 0, uses_anonymous_args = 0
	@ link register save eliminated.
	.loc 1 37 0
	mov	r0, r0	@ nop
	bx	lr
	.cfi_endproc
.LFE5:
	.size	__aeabi_ddiv, .-__aeabi_ddiv
	.align	2
	.global	__aeabi_dsub
	.type	__aeabi_dsub, %function
__aeabi_dsub:
.LFB6:
	.loc 1 38 0
	.cfi_startproc
	@ Function supports interworking.
	@ args = 0, pretend = 0, frame = 0
	@ frame_needed = 0, uses_anonymous_args = 0
	@ link register save eliminated.
	.loc 1 38 0
	mov	r0, r0	@ nop
	bx	lr
	.cfi_endproc
.LFE6:
	.size	__aeabi_dsub, .-__aeabi_dsub
	.align	2
	.global	__aeabi_dmul
	.type	__aeabi_dmul, %function
__aeabi_dmul:
.LFB7:
	.loc 1 39 0
	.cfi_startproc
	@ Function supports interworking.
	@ args = 0, pretend = 0, frame = 0
	@ frame_needed = 0, uses_anonymous_args = 0
	@ link register save eliminated.
	.loc 1 39 0
	mov	r0, r0	@ nop
	bx	lr
	.cfi_endproc
.LFE7:
	.size	__aeabi_dmul, .-__aeabi_dmul
	.align	2
	.global	__aeabi_dcmpge
	.type	__aeabi_dcmpge, %function
__aeabi_dcmpge:
.LFB8:
	.loc 1 40 0
	.cfi_startproc
	@ Function supports interworking.
	@ args = 0, pretend = 0, frame = 0
	@ frame_needed = 0, uses_anonymous_args = 0
	@ link register save eliminated.
	.loc 1 40 0
	mov	r0, r0	@ nop
	bx	lr
	.cfi_endproc
.LFE8:
	.size	__aeabi_dcmpge, .-__aeabi_dcmpge
	.align	2
	.global	__aeabi_dcmpeq
	.type	__aeabi_dcmpeq, %function
__aeabi_dcmpeq:
.LFB9:
	.loc 1 41 0
	.cfi_startproc
	@ Function supports interworking.
	@ args = 0, pretend = 0, frame = 0
	@ frame_needed = 0, uses_anonymous_args = 0
	@ link register save eliminated.
	.loc 1 41 0
	mov	r0, r0	@ nop
	bx	lr
	.cfi_endproc
.LFE9:
	.size	__aeabi_dcmpeq, .-__aeabi_dcmpeq
	.align	2
	.global	__aeabi_dcmpgt
	.type	__aeabi_dcmpgt, %function
__aeabi_dcmpgt:
.LFB10:
	.loc 1 42 0
	.cfi_startproc
	@ Function supports interworking.
	@ args = 0, pretend = 0, frame = 0
	@ frame_needed = 0, uses_anonymous_args = 0
	@ link register save eliminated.
	.loc 1 42 0
	mov	r0, r0	@ nop
	bx	lr
	.cfi_endproc
.LFE10:
	.size	__aeabi_dcmpgt, .-__aeabi_dcmpgt
	.align	2
	.global	__aeabi_dcmple
	.type	__aeabi_dcmple, %function
__aeabi_dcmple:
.LFB11:
	.loc 1 43 0
	.cfi_startproc
	@ Function supports interworking.
	@ args = 0, pretend = 0, frame = 0
	@ frame_needed = 0, uses_anonymous_args = 0
	@ link register save eliminated.
	.loc 1 43 0
	mov	r0, r0	@ nop
	bx	lr
	.cfi_endproc
.LFE11:
	.size	__aeabi_dcmple, .-__aeabi_dcmple
	.align	2
	.global	__aeabi_d2f
	.type	__aeabi_d2f, %function
__aeabi_d2f:
.LFB12:
	.loc 1 44 0
	.cfi_startproc
	@ Function supports interworking.
	@ args = 0, pretend = 0, frame = 0
	@ frame_needed = 0, uses_anonymous_args = 0
	@ link register save eliminated.
	.loc 1 44 0
	mov	r0, r0	@ nop
	bx	lr
	.cfi_endproc
.LFE12:
	.size	__aeabi_d2f, .-__aeabi_d2f
	.align	2
	.global	__aeabi_dadd
	.type	__aeabi_dadd, %function
__aeabi_dadd:
.LFB13:
	.loc 1 45 0
	.cfi_startproc
	@ Function supports interworking.
	@ args = 0, pretend = 0, frame = 0
	@ frame_needed = 0, uses_anonymous_args = 0
	@ link register save eliminated.
	.loc 1 45 0
	mov	r0, r0	@ nop
	bx	lr
	.cfi_endproc
.LFE13:
	.size	__aeabi_dadd, .-__aeabi_dadd
	.align	2
	.global	__aeabi_d2iz
	.type	__aeabi_d2iz, %function
__aeabi_d2iz:
.LFB14:
	.loc 1 46 0
	.cfi_startproc
	@ Function supports interworking.
	@ args = 0, pretend = 0, frame = 0
	@ frame_needed = 0, uses_anonymous_args = 0
	@ link register save eliminated.
	.loc 1 46 0
	mov	r0, r0	@ nop
	bx	lr
	.cfi_endproc
.LFE14:
	.size	__aeabi_d2iz, .-__aeabi_d2iz
	.align	2
	.global	__aeabi_fcmplt
	.type	__aeabi_fcmplt, %function
__aeabi_fcmplt:
.LFB15:
	.loc 1 49 0
	.cfi_startproc
	@ Function supports interworking.
	@ args = 0, pretend = 0, frame = 0
	@ frame_needed = 0, uses_anonymous_args = 0
	@ link register save eliminated.
	.loc 1 49 0
	mov	r0, r0	@ nop
	bx	lr
	.cfi_endproc
.LFE15:
	.size	__aeabi_fcmplt, .-__aeabi_fcmplt
	.align	2
	.global	__aeabi_fcmpgt
	.type	__aeabi_fcmpgt, %function
__aeabi_fcmpgt:
.LFB16:
	.loc 1 50 0
	.cfi_startproc
	@ Function supports interworking.
	@ args = 0, pretend = 0, frame = 0
	@ frame_needed = 0, uses_anonymous_args = 0
	@ link register save eliminated.
	.loc 1 50 0
	mov	r0, r0	@ nop
	bx	lr
	.cfi_endproc
.LFE16:
	.size	__aeabi_fcmpgt, .-__aeabi_fcmpgt
	.align	2
	.global	__aeabi_fdiv
	.type	__aeabi_fdiv, %function
__aeabi_fdiv:
.LFB17:
	.loc 1 51 0
	.cfi_startproc
	@ Function supports interworking.
	@ args = 0, pretend = 0, frame = 0
	@ frame_needed = 0, uses_anonymous_args = 0
	@ link register save eliminated.
	.loc 1 51 0
	mov	r0, r0	@ nop
	bx	lr
	.cfi_endproc
.LFE17:
	.size	__aeabi_fdiv, .-__aeabi_fdiv
	.align	2
	.global	__aeabi_fcmpeq
	.type	__aeabi_fcmpeq, %function
__aeabi_fcmpeq:
.LFB18:
	.loc 1 52 0
	.cfi_startproc
	@ Function supports interworking.
	@ args = 0, pretend = 0, frame = 0
	@ frame_needed = 0, uses_anonymous_args = 0
	@ link register save eliminated.
	.loc 1 52 0
	mov	r0, r0	@ nop
	bx	lr
	.cfi_endproc
.LFE18:
	.size	__aeabi_fcmpeq, .-__aeabi_fcmpeq
	.align	2
	.global	__aeabi_fmul
	.type	__aeabi_fmul, %function
__aeabi_fmul:
.LFB19:
	.loc 1 53 0
	.cfi_startproc
	@ Function supports interworking.
	@ args = 0, pretend = 0, frame = 0
	@ frame_needed = 0, uses_anonymous_args = 0
	@ link register save eliminated.
	.loc 1 53 0
	mov	r0, r0	@ nop
	bx	lr
	.cfi_endproc
.LFE19:
	.size	__aeabi_fmul, .-__aeabi_fmul
	.align	2
	.global	__aeabi_fsub
	.type	__aeabi_fsub, %function
__aeabi_fsub:
.LFB20:
	.loc 1 54 0
	.cfi_startproc
	@ Function supports interworking.
	@ args = 0, pretend = 0, frame = 0
	@ frame_needed = 0, uses_anonymous_args = 0
	@ link register save eliminated.
	.loc 1 54 0
	mov	r0, r0	@ nop
	bx	lr
	.cfi_endproc
.LFE20:
	.size	__aeabi_fsub, .-__aeabi_fsub
	.align	2
	.global	__aeabi_f2d
	.type	__aeabi_f2d, %function
__aeabi_f2d:
.LFB21:
	.loc 1 55 0
	.cfi_startproc
	@ Function supports interworking.
	@ args = 0, pretend = 0, frame = 0
	@ frame_needed = 0, uses_anonymous_args = 0
	@ link register save eliminated.
	.loc 1 55 0
	mov	r0, r0	@ nop
	bx	lr
	.cfi_endproc
.LFE21:
	.size	__aeabi_f2d, .-__aeabi_f2d
	.align	2
	.global	__aeabi_fadd
	.type	__aeabi_fadd, %function
__aeabi_fadd:
.LFB22:
	.loc 1 56 0
	.cfi_startproc
	@ Function supports interworking.
	@ args = 0, pretend = 0, frame = 0
	@ frame_needed = 0, uses_anonymous_args = 0
	@ link register save eliminated.
	.loc 1 56 0
	mov	r0, r0	@ nop
	bx	lr
	.cfi_endproc
.LFE22:
	.size	__aeabi_fadd, .-__aeabi_fadd
	.align	2
	.global	__aeabi_ui2
	.type	__aeabi_ui2, %function
__aeabi_ui2:
.LFB23:
	.loc 1 59 0
	.cfi_startproc
	@ Function supports interworking.
	@ args = 0, pretend = 0, frame = 0
	@ frame_needed = 0, uses_anonymous_args = 0
	@ link register save eliminated.
	.loc 1 59 0
	mov	r0, r0	@ nop
	bx	lr
	.cfi_endproc
.LFE23:
	.size	__aeabi_ui2, .-__aeabi_ui2
	.align	2
	.global	__aeabi_ui2d
	.type	__aeabi_ui2d, %function
__aeabi_ui2d:
.LFB24:
	.loc 1 60 0
	.cfi_startproc
	@ Function supports interworking.
	@ args = 0, pretend = 0, frame = 0
	@ frame_needed = 0, uses_anonymous_args = 0
	@ link register save eliminated.
	.loc 1 60 0
	mov	r0, r0	@ nop
	bx	lr
	.cfi_endproc
.LFE24:
	.size	__aeabi_ui2d, .-__aeabi_ui2d
	.align	2
	.global	__aeabi_dcmpun
	.type	__aeabi_dcmpun, %function
__aeabi_dcmpun:
.LFB25:
	.loc 1 62 0
	.cfi_startproc
	@ Function supports interworking.
	@ args = 0, pretend = 0, frame = 0
	@ frame_needed = 0, uses_anonymous_args = 0
	@ link register save eliminated.
	.loc 1 62 0
	mov	r0, r0	@ nop
	bx	lr
	.cfi_endproc
.LFE25:
	.size	__aeabi_dcmpun, .-__aeabi_dcmpun
	.align	2
	.global	__aeabi_dcmplt
	.type	__aeabi_dcmplt, %function
__aeabi_dcmplt:
.LFB26:
	.loc 1 63 0
	.cfi_startproc
	@ Function supports interworking.
	@ args = 0, pretend = 0, frame = 0
	@ frame_needed = 0, uses_anonymous_args = 0
	@ link register save eliminated.
	.loc 1 63 0
	mov	r0, r0	@ nop
	bx	lr
	.cfi_endproc
.LFE26:
	.size	__aeabi_dcmplt, .-__aeabi_dcmplt
	.comm	display_tick,4,4
	.comm	display_auto_update,4,4
	.global	displayM
	.bss
	.align	2
	.type	displayM, %object
	.size	displayM, 4
displayM:
	.space	4
	.global	dirty
	.type	dirty, %object
	.size	dirty, 1
dirty:
	.space	1
	.global	page
	.type	page, %object
	.size	page, 1
page:
	.space	1
	.global	dataM
	.align	2
	.type	dataM, %object
	.size	dataM, 4
dataM:
	.space	4
	.global	mode
	.data
	.type	mode, %object
	.size	mode, 1
mode:
	.byte	-1
	.comm	display_x,4,4
	.comm	display_y,4,4
	.section	.rodata
	.align	2
	.type	i2c_pin, %object
	.size	i2c_pin, 32
i2c_pin:
	.word	8388608
	.word	262144
	.word	268435456
	.word	524288
	.word	536870912
	.word	1048576
	.word	1073741824
	.word	4
	.bss
	.align	2
i2c_port:
	.space	368
	.align	2
i2c_int_count:
	.space	4
	.data
	.align	2
	.type	distance_state, %object
	.size	distance_state, 16
distance_state:
	.word	-1
	.word	-1
	.word	-1
	.word	-1
	.global	NXT_COLORSENSOR_PROTOCOLS
	.section	.rodata
	.align	2
	.type	NXT_COLORSENSOR_PROTOCOLS, %object
	.size	NXT_COLORSENSOR_PROTOCOLS, 7
NXT_COLORSENSOR_PROTOCOLS:
	.byte	-80
	.byte	112
	.byte	-16
	.byte	8
	.byte	-80
	.byte	-120
	.byte	-120
	.bss
	.align	2
sensor_data:
	.space	56
	.align	2
io_to_avr:
	.space	8
	.align	2
data_to_avr:
	.space	9
	.align	2
data_from_avr:
	.space	26
	.align	2
io_from_avr:
	.space	4
	.align	2
from_buf:
	.space	4
	.align	1
prev_buttons:
	.space	2
	.align	1
button_state:
	.space	2
	.align	1
debounce_state:
	.space	2
	.align	1
debounce_cnt:
	.space	2
	.align	2
motor:
	.space	48
	.align	2
nxt_motor_initialised:
	.space	4
	.align	2
interrupts_this_period:
	.space	4
	.global	dc
	.data
	.align	2
	.type	dc, %object
	.size	dc, 16
dc:
	.word	0
	.word	0
	.word	0
	.word	5
	.comm	SeekStarted,4,4
	.comm	LastSonarValue,4,4
	.comm	InSetupPhase,4,4
	.comm	SetupStarted,4,4
	.text
	.align	2
	.global	TaskMainMotorcontrolTask
	.type	TaskMainMotorcontrolTask, %function
TaskMainMotorcontrolTask:
.LFB27:
	.file 2 "sumo.c"
	.loc 2 4269 0
	.cfi_startproc
	@ Function supports interworking.
	@ args = 0, pretend = 0, frame = 48
	@ frame_needed = 0, uses_anonymous_args = 0
	@ link register save eliminated.
	sub	sp, sp, #48
	.cfi_def_cfa_offset 48
	.loc 2 4288 0
	ldr	r3, .L48
	ldr	r3, [r3]
	cmp	r3, #0
	beq	.L29
	.loc 2 4289 0
	ldr	r3, .L48
	ldr	r3, [r3]
	sub	r3, r3, #50
	ldr	r2, .L48
	str	r3, [r2]
	b	.L30
.L29:
	.loc 2 4291 0
	ldr	r3, .L48
	mov	r2, #5
	str	r2, [r3, #12]
	.loc 2 4292 0
	ldr	r3, .L48
	mov	r2, #0
	str	r2, [r3]
	.loc 2 4293 0
	ldr	r3, .L48
	mov	r2, #0
	str	r2, [r3, #4]
	.loc 2 4294 0
	ldr	r3, .L48
	mov	r2, #0
	str	r2, [r3, #8]
.L30:
	.loc 2 4296 0
	mov	r3, #1
	str	r3, [sp, #36]
	.loc 2 4297 0
	ldr	r3, .L48
	ldr	r3, [r3, #4]
	rsb	r3, r3, #0
	str	r3, [sp, #44]
	.loc 2 4298 0
	mov	r3, #1
	str	r3, [sp, #32]
	.loc 2 4299 0
	ldr	r3, [sp, #36]
	cmp	r3, #2
	bhi	.L44
	.loc 2 4300 0
	ldr	r3, [sp, #44]
	cmp	r3, #100
	ble	.L32
	.loc 2 4301 0
	mov	r3, #100
	str	r3, [sp, #44]
.L32:
	.loc 2 4303 0
	ldr	r3, [sp, #44]
	cmn	r3, #100
	bge	.L33
	.loc 2 4304 0
	mvn	r3, #99
	str	r3, [sp, #44]
.L33:
	.loc 2 4306 0
	ldr	r2, .L48+4
	ldr	r3, [sp, #36]
	mov	r3, r3, asl #4
	add	r3, r2, r3
	ldr	r2, [sp, #44]
	str	r2, [r3, #8]
	.loc 2 4307 0
	ldr	r3, [sp, #36]
	str	r3, [sp, #28]
	.loc 2 4308 0
	ldr	r3, [sp, #44]
	str	r3, [sp, #24]
	.loc 2 4309 0
	ldr	r3, [sp, #32]
	str	r3, [sp, #20]
	.loc 2 4310 0
	ldr	r3, [sp, #28]
	cmp	r3, #2
	bhi	.L45
	.loc 2 4311 0
	ldr	r3, [sp, #24]
	mov	r3, r3, asl #24
	mov	r1, r3, asr #24
	ldr	r2, .L48+8
	ldr	r3, [sp, #28]
	add	r3, r2, r3
	add	r3, r3, #2
	mov	r2, r1
	strb	r2, [r3]
	.loc 2 4312 0
	ldr	r3, [sp, #20]
	cmp	r3, #0
	beq	.L35
	.loc 2 4313 0
	ldr	r3, .L48+8
	ldrb	r3, [r3, #6]	@ zero_extendqisi2
	mov	r3, r3, asl #24
	mov	r2, r3, asr #24
	mov	r1, #1
	ldr	r3, [sp, #28]
	mov	r3, r1, asl r3
	mov	r3, r3, asl #24
	mov	r3, r3, asr #24
	orr	r3, r2, r3
	mov	r3, r3, asl #24
	mov	r3, r3, asr #24
	and	r2, r3, #255
	ldr	r3, .L48+8
	strb	r2, [r3, #6]
	.loc 2 4318 0
	b	.L45
.L35:
	.loc 2 4315 0
	ldr	r3, .L48+8
	ldrb	r3, [r3, #6]	@ zero_extendqisi2
	mov	r3, r3, asl #24
	mov	r2, r3, asr #24
	mov	r1, #1
	ldr	r3, [sp, #28]
	mov	r3, r1, asl r3
	mov	r3, r3, asl #24
	mov	r3, r3, asr #24
	mvn	r3, r3
	mov	r3, r3, asl #24
	mov	r3, r3, asr #24
	and	r3, r3, r2
	mov	r3, r3, asl #24
	mov	r3, r3, asr #24
	and	r2, r3, #255
	ldr	r3, .L48+8
	strb	r2, [r3, #6]
.L45:
	.loc 2 4318 0
	mov	r0, r0	@ nop
.L31:
.L44:
	.loc 2 4321 0
	mov	r0, r0	@ nop
.L36:
	.loc 2 4323 0
	mov	r3, #0
	str	r3, [sp, #16]
	.loc 2 4324 0
	ldr	r3, .L48
	ldr	r3, [r3, #8]
	rsb	r3, r3, #0
	str	r3, [sp, #40]
	.loc 2 4325 0
	mov	r3, #1
	str	r3, [sp, #12]
	.loc 2 4326 0
	ldr	r3, [sp, #16]
	cmp	r3, #2
	bhi	.L46
	.loc 2 4327 0
	ldr	r3, [sp, #40]
	cmp	r3, #100
	ble	.L38
	.loc 2 4328 0
	mov	r3, #100
	str	r3, [sp, #40]
.L38:
	.loc 2 4330 0
	ldr	r3, [sp, #40]
	cmn	r3, #100
	bge	.L39
	.loc 2 4331 0
	mvn	r3, #99
	str	r3, [sp, #40]
.L39:
	.loc 2 4333 0
	ldr	r2, .L48+4
	ldr	r3, [sp, #16]
	mov	r3, r3, asl #4
	add	r3, r2, r3
	ldr	r2, [sp, #40]
	str	r2, [r3, #8]
	.loc 2 4334 0
	ldr	r3, [sp, #16]
	str	r3, [sp, #8]
	.loc 2 4335 0
	ldr	r3, [sp, #40]
	str	r3, [sp, #4]
	.loc 2 4336 0
	ldr	r3, [sp, #12]
	str	r3, [sp]
	.loc 2 4337 0
	ldr	r3, [sp, #8]
	cmp	r3, #2
	bhi	.L47
	.loc 2 4338 0
	ldr	r3, [sp, #4]
	mov	r3, r3, asl #24
	mov	r1, r3, asr #24
	ldr	r2, .L48+8
	ldr	r3, [sp, #8]
	add	r3, r2, r3
	add	r3, r3, #2
	mov	r2, r1
	strb	r2, [r3]
	.loc 2 4339 0
	ldr	r3, [sp]
	cmp	r3, #0
	beq	.L41
	.loc 2 4340 0
	ldr	r3, .L48+8
	ldrb	r3, [r3, #6]	@ zero_extendqisi2
	mov	r3, r3, asl #24
	mov	r2, r3, asr #24
	mov	r1, #1
	ldr	r3, [sp, #8]
	mov	r3, r1, asl r3
	mov	r3, r3, asl #24
	mov	r3, r3, asr #24
	orr	r3, r2, r3
	mov	r3, r3, asl #24
	mov	r3, r3, asr #24
	and	r2, r3, #255
	ldr	r3, .L48+8
	strb	r2, [r3, #6]
	.loc 2 4345 0
	b	.L47
.L41:
	.loc 2 4342 0
	ldr	r3, .L48+8
	ldrb	r3, [r3, #6]	@ zero_extendqisi2
	mov	r3, r3, asl #24
	mov	r2, r3, asr #24
	mov	r1, #1
	ldr	r3, [sp, #8]
	mov	r3, r1, asl r3
	mov	r3, r3, asl #24
	mov	r3, r3, asr #24
	mvn	r3, r3
	mov	r3, r3, asl #24
	mov	r3, r3, asr #24
	and	r3, r3, r2
	mov	r3, r3, asl #24
	mov	r3, r3, asr #24
	and	r2, r3, #255
	ldr	r3, .L48+8
	strb	r2, [r3, #6]
.L47:
	.loc 2 4345 0
	mov	r0, r0	@ nop
.L37:
.L46:
	.loc 2 4348 0
	mov	r0, r0	@ nop
.L42:
	.loc 2 4352 0
	mov	r0, r0	@ nop
	.loc 2 4354 0
	add	sp, sp, #48
	.cfi_def_cfa_offset 0
	@ sp needed
	bx	lr
.L49:
	.align	2
.L48:
	.word	dc
	.word	motor
	.word	io_to_avr
	.cfi_endproc
.LFE27:
	.size	TaskMainMotorcontrolTask, .-TaskMainMotorcontrolTask
	.align	2
	.global	TaskMainColorSensorTask
	.type	TaskMainColorSensorTask, %function
TaskMainColorSensorTask:
.LFB28:
	.loc 2 4356 0
	.cfi_startproc
	@ Function supports interworking.
	@ args = 0, pretend = 0, frame = 48
	@ frame_needed = 0, uses_anonymous_args = 0
	@ link register save eliminated.
	sub	sp, sp, #48
	.cfi_def_cfa_offset 48
	.loc 2 4376 0
	mov	r3, #0
	str	r3, [sp, #44]
	.loc 2 4377 0
	b	.L51
.L57:
	.loc 2 4378 0
	.syntax divided
@ 4378 "sumo.c" 1
	1:
        .section .wcet_annot
        .long 1b
        .long 1
        .long 4
                        .text
@ 0 "" 2
	.loc 2 4379 0
	.arm
	.syntax divided
	mov	r3, #1
	str	r3, [sp, #36]
	.loc 2 4380 0
	ldr	r3, [sp, #36]
	cmp	r3, #0
	beq	.L52
	.loc 2 4381 0
	mov	r3, #1
	strb	r3, [sp, #43]
.L52:
	.loc 2 4382 0
	ldrb	r3, [sp, #43]	@ zero_extendqisi2
	cmp	r3, #6
	beq	.L62
	.loc 2 4387 0
	ldrb	r2, [sp, #43]	@ zero_extendqisi2
	ldr	r3, [sp, #36]
	cmp	r2, r3
	beq	.L55
	.loc 2 4398 0
	ldrb	r3, [sp, #43]	@ zero_extendqisi2
	cmp	r3, #0
	bne	.L56
	.loc 2 4399 0
	mov	r3, #1
	str	r3, [sp, #32]
	b	.L55
.L56:
	.loc 2 4403 0
	mov	r3, #1
	str	r3, [sp, #28]
.L55:
	.loc 2 4410 0
	ldr	r3, [sp, #44]
	add	r3, r3, #1
	str	r3, [sp, #44]
.L51:
	.loc 2 4377 0
	ldr	r3, [sp, #44]
	cmp	r3, #3
	ble	.L57
	.loc 2 4412 0
	b	.L54
.L62:
	.loc 2 4385 0
	mov	r0, r0	@ nop
.L54:
	.loc 2 4414 0
	mov	r3, #0
	strb	r3, [sp, #27]
	.loc 2 4415 0
	ldrb	r2, [sp, #27]	@ zero_extendqisi2
	ldr	r1, .L64
	mov	r3, r2
	mov	r3, r3, asl #3
	rsb	r3, r2, r3
	mov	r3, r3, asl #1
	add	r3, r1, r3
	add	r3, r3, #8
	ldrh	r3, [r3]	@ movhi
	strh	r3, [sp, #24]	@ movhi
	.loc 2 4416 0
	mov	r0, r0	@ nop
.L58:
	.loc 2 4418 0
	ldrh	r3, [sp, #24]	@ movhi
	strh	r3, [sp, #22]	@ movhi
	.loc 2 4419 0
	ldrh	r3, [sp, #22]	@ movhi
	strh	r3, [sp, #20]	@ movhi
	.loc 2 4420 0
	ldrh	r3, [sp, #20]
	cmp	r3, #300
	bcs	.L63
	.loc 2 4422 0
	mov	r3, #50
	str	r3, [sp, #16]
	.loc 2 4423 0
	mvn	r3, #99
	str	r3, [sp, #12]
	.loc 2 4424 0
	mvn	r3, #99
	str	r3, [sp, #8]
	.loc 2 4425 0
	ldr	r3, .L64+4
	str	r3, [sp, #4]
	.loc 2 4427 0
	ldr	r3, .L64+8
	ldr	r3, [r3, #12]
	cmp	r3, #20
	beq	.L60
	.loc 2 4428 0
	ldr	r3, .L64+12
	mov	r2, #0
	str	r2, [r3]
.L60:
	.loc 2 4430 0
	ldr	r3, .L64+8
	ldr	r2, [r3, #12]
	ldr	r3, [sp, #16]
	cmp	r2, r3
	bgt	.L63
	.loc 2 4431 0
	ldr	r2, .L64+8
	ldr	r3, [sp, #16]
	str	r3, [r2, #12]
	.loc 2 4432 0
	ldr	r2, .L64+8
	ldr	r3, [sp, #12]
	str	r3, [r2, #4]
	.loc 2 4433 0
	ldr	r2, .L64+8
	ldr	r3, [sp, #8]
	str	r3, [r2, #8]
	.loc 2 4434 0
	ldr	r3, [sp, #4]
	ldr	r2, .L64+8
	str	r3, [r2]
	.loc 2 4442 0
	mov	r0, r0	@ nop
.L63:
	mov	r0, r0	@ nop
	.loc 2 4444 0
	add	sp, sp, #48
	.cfi_def_cfa_offset 0
	@ sp needed
	bx	lr
.L65:
	.align	2
.L64:
	.word	sensor_data
	.word	1250
	.word	dc
	.word	SeekStarted
	.cfi_endproc
.LFE28:
	.size	TaskMainColorSensorTask, .-TaskMainColorSensorTask
	.align	2
	.global	TaskMainSonarSensorTask
	.type	TaskMainSonarSensorTask, %function
TaskMainSonarSensorTask:
.LFB29:
	.loc 2 4447 0
	.cfi_startproc
	@ Function supports interworking.
	@ args = 0, pretend = 0, frame = 200
	@ frame_needed = 0, uses_anonymous_args = 0
	@ link register save eliminated.
	sub	sp, sp, #200
	.cfi_def_cfa_offset 200
	.loc 2 4506 0
	ldr	r3, .L124
	str	r3, [sp, #196]
	.loc 2 4507 0
	mov	r3, #1
	strb	r3, [sp, #195]
	.loc 2 4508 0
	mov	r3, #1
	str	r3, [sp, #188]
	.loc 2 4509 0
	ldr	r3, [sp, #188]
	cmp	r3, #0
	bne	.L67
	.loc 2 4511 0
	ldrb	r3, [sp, #195]	@ zero_extendqisi2
	str	r3, [sp, #184]
	.loc 2 4512 0
	mov	r3, #1
	str	r3, [sp, #180]
	.loc 2 4513 0
	mov	r3, #66
	str	r3, [sp, #176]
	.loc 2 4514 0
	mov	r3, #1
	str	r3, [sp, #172]
	.loc 2 4516 0
	mov	r3, #1
	str	r3, [sp, #168]
	.loc 2 4517 0
	mov	r3, #0
	str	r3, [sp, #164]
	.loc 2 4518 0
	ldr	r3, [sp, #184]
	cmp	r3, #0
	blt	.L109
	.loc 2 4521 0
	ldr	r3, [sp, #184]
	cmp	r3, #3
	bgt	.L110
	.loc 2 4524 0
	mov	r3, #1
	str	r3, [sp, #160]
	.loc 2 4525 0
	ldr	r3, [sp, #160]
	cmp	r3, #0
	bne	.L111
	.loc 2 4548 0
	ldr	r3, [sp, #172]
	cmp	r3, #0
	beq	.L112
	.loc 2 4551 0
	ldr	r3, [sp, #164]
	cmp	r3, #0
	bne	.L113
	b	.L72
.L112:
	.loc 2 4549 0
	mov	r0, r0	@ nop
.L72:
	.loc 2 4561 0
	ldr	r3, [sp, #164]
	cmp	r3, #0
	beq	.L74
	.loc 2 4562 0
	mov	r3, #0
	str	r3, [sp, #156]
	.loc 2 4582 0
	b	.L113
.L74:
	.loc 2 4564 0
	mov	r3, #1
	str	r3, [sp, #156]
	.loc 2 4582 0
	b	.L113
.L109:
	.loc 2 4519 0
	mov	r0, r0	@ nop
	b	.L67
.L110:
	.loc 2 4522 0
	mov	r0, r0	@ nop
	b	.L67
.L111:
	.loc 2 4526 0
	mov	r0, r0	@ nop
	b	.L67
.L113:
	.loc 2 4582 0
	mov	r0, r0	@ nop
.L67:
	.loc 2 4585 0
	ldrb	r3, [sp, #195]	@ zero_extendqisi2
	ldr	r2, .L124+4
	ldr	r3, [r2, r3, asl #2]
	str	r3, [sp, #152]
	.loc 2 4586 0
	mov	r0, r0	@ nop
.L75:
	.loc 2 4588 0
	ldr	r3, [sp, #152]
	str	r3, [sp, #148]
	.loc 2 4589 0
	ldr	r3, [sp, #148]
	str	r3, [sp, #144]
	.loc 2 4590 0
	ldr	r3, .L124+8
	ldr	r3, [r3]
	cmp	r3, #0
	bne	.L76
	.loc 2 4591 0
	ldr	r3, .L124+8
	mov	r2, #255
	str	r2, [r3]
.L76:
	.loc 2 4593 0
	ldr	r3, [sp, #144]
	cmp	r3, #255
	bne	.L77
	.loc 2 4594 0
	ldr	r3, .L124+8
	ldr	r3, [r3]
	cmp	r3, #19
	bgt	.L78
	.loc 2 4595 0
	mov	r3, #30
	str	r3, [sp, #140]
	.loc 2 4596 0
	mov	r3, #100
	str	r3, [sp, #136]
	.loc 2 4597 0
	mov	r3, #100
	str	r3, [sp, #132]
	.loc 2 4598 0
	mov	r3, #150
	str	r3, [sp, #128]
	.loc 2 4600 0
	ldr	r3, .L124+12
	ldr	r3, [r3, #12]
	cmp	r3, #20
	beq	.L79
	.loc 2 4601 0
	ldr	r3, .L124+16
	mov	r2, #0
	str	r2, [r3]
.L79:
	.loc 2 4603 0
	ldr	r3, .L124+12
	ldr	r2, [r3, #12]
	ldr	r3, [sp, #140]
	cmp	r2, r3
	bgt	.L114
	.loc 2 4604 0
	ldr	r2, .L124+12
	ldr	r3, [sp, #140]
	str	r3, [r2, #12]
	.loc 2 4605 0
	ldr	r2, .L124+12
	ldr	r3, [sp, #136]
	str	r3, [r2, #4]
	.loc 2 4606 0
	ldr	r2, .L124+12
	ldr	r3, [sp, #132]
	str	r3, [r2, #8]
	.loc 2 4607 0
	ldr	r3, [sp, #128]
	ldr	r2, .L124+12
	str	r3, [r2]
	.loc 2 4610 0
	mov	r0, r0	@ nop
.L81:
	b	.L114
.L78:
	.loc 2 4613 0
	ldr	r2, .L124+8
	ldr	r3, [sp, #144]
	str	r3, [r2]
	b	.L83
.L77:
	.loc 2 4616 0
	ldr	r2, .L124+8
	ldr	r3, [sp, #144]
	str	r3, [r2]
	b	.L83
.L114:
	.loc 2 4610 0
	mov	r0, r0	@ nop
.L83:
	.loc 2 4618 0
	mov	r3, #1000
	str	r3, [sp, #124]
	.loc 2 4619 0
	ldr	r3, [sp, #124]
	mov	r3, r3, asl #1
	str	r3, [sp, #120]
	.loc 2 4620 0
	ldr	r3, [sp, #120]
	mov	r3, r3, asl #1
	str	r3, [sp, #116]
	.loc 2 4621 0
	ldr	r3, [sp, #116]
	add	r3, r3, #2000
	str	r3, [sp, #112]
	.loc 2 4622 0
	ldr	r3, [sp, #144]
	cmp	r3, #70
	ble	.L84
	.loc 2 4623 0
	ldr	r3, .L124+16
	ldr	r3, [r3]
	cmp	r3, #0
	bne	.L85
	.loc 2 4624 0
	ldr	r3, .L124+16
	mov	r2, #1
	str	r2, [r3]
	.loc 2 4625 0
	mov	r3, #1
	str	r3, [sp, #108]
	.loc 2 4626 0
	mov	r3, #1
	str	r3, [sp, #104]
	.loc 2 4627 0
	ldr	r3, [sp, #104]
	str	r3, [sp, #100]
	.loc 2 4628 0
	ldr	r2, [sp, #100]
	mov	r3, r2
	mov	r3, r3, asl #26
	rsb	r3, r2, r3
	mov	r3, r3, asl #3
	rsb	r3, r2, r3
	mov	r3, r3, asl #2
	add	r3, r3, r2
	mov	r3, r3, asl #1
	str	r3, [sp, #96]
	.loc 2 4629 0
	ldr	r2, [sp, #100]
	mov	r3, r2
	mov	r3, r3, asl #2
	add	r3, r3, r2
	mov	r2, r3, asl #3
	rsb	r2, r3, r2
	mov	r3, r2, asl #1
	mov	r2, r3
	str	r2, [sp, #92]
	.loc 2 4630 0
	mov	r3, #20
	str	r3, [sp, #88]
	.loc 2 4631 0
	ldr	r3, [sp, #96]
	str	r3, [sp, #84]
	.loc 2 4632 0
	ldr	r3, [sp, #92]
	str	r3, [sp, #80]
	.loc 2 4633 0
	ldr	r3, [sp, #196]
	str	r3, [sp, #76]
	.loc 2 4635 0
	ldr	r3, .L124+12
	ldr	r3, [r3, #12]
	cmp	r3, #20
	beq	.L86
	.loc 2 4636 0
	ldr	r3, .L124+16
	mov	r2, #0
	str	r2, [r3]
.L86:
	.loc 2 4638 0
	ldr	r3, .L124+12
	ldr	r2, [r3, #12]
	ldr	r3, [sp, #88]
	cmp	r2, r3
	bgt	.L115
	.loc 2 4639 0
	ldr	r2, .L124+12
	ldr	r3, [sp, #88]
	str	r3, [r2, #12]
	.loc 2 4640 0
	ldr	r2, .L124+12
	ldr	r3, [sp, #84]
	str	r3, [r2, #4]
	.loc 2 4641 0
	ldr	r2, .L124+12
	ldr	r3, [sp, #80]
	str	r3, [r2, #8]
	.loc 2 4642 0
	ldr	r3, [sp, #76]
	ldr	r2, .L124+12
	str	r3, [r2]
	.loc 2 4645 0
	mov	r0, r0	@ nop
.L88:
	b	.L115
.L85:
	.loc 2 4648 0
	mov	r3, #1
	str	r3, [sp, #72]
	.loc 2 4649 0
	ldr	r3, [sp, #72]
	str	r3, [sp, #68]
	.loc 2 4650 0
	ldr	r3, .L124+16
	ldr	r3, [r3]
	ldr	r2, [sp, #68]
	rsb	r3, r3, r2
	str	r3, [sp, #64]
	.loc 2 4651 0
	ldr	r3, [sp, #124]
	ldr	r2, [sp, #64]
	cmp	r2, r3
	bls	.L90
	.loc 2 4652 0
	ldr	r3, [sp, #124]
	add	r3, r3, #100
	mov	r2, r3
	ldr	r3, [sp, #64]
	cmp	r2, r3
	bcc	.L116
	.loc 2 4654 0
	ldr	r3, .L124+12
	ldr	r3, [r3, #4]
	rsb	r3, r3, #0
	str	r3, [sp, #96]
	.loc 2 4655 0
	ldr	r3, .L124+12
	ldr	r3, [r3, #8]
	rsb	r3, r3, #0
	str	r3, [sp, #92]
	.loc 2 4657 0
	mov	r3, #20
	str	r3, [sp, #60]
	.loc 2 4658 0
	ldr	r3, [sp, #96]
	str	r3, [sp, #56]
	.loc 2 4659 0
	ldr	r3, [sp, #92]
	str	r3, [sp, #52]
	.loc 2 4660 0
	ldr	r3, [sp, #196]
	str	r3, [sp, #48]
	.loc 2 4662 0
	ldr	r3, .L124+12
	ldr	r3, [r3, #12]
	cmp	r3, #20
	beq	.L92
	.loc 2 4663 0
	ldr	r3, .L124+16
	mov	r2, #0
	str	r2, [r3]
.L92:
	.loc 2 4665 0
	ldr	r3, .L124+12
	ldr	r2, [r3, #12]
	ldr	r3, [sp, #60]
	cmp	r2, r3
	bgt	.L117
	.loc 2 4666 0
	ldr	r2, .L124+12
	ldr	r3, [sp, #60]
	str	r3, [r2, #12]
	.loc 2 4667 0
	ldr	r2, .L124+12
	ldr	r3, [sp, #56]
	str	r3, [r2, #4]
	.loc 2 4668 0
	ldr	r2, .L124+12
	ldr	r3, [sp, #52]
	str	r3, [r2, #8]
	.loc 2 4669 0
	ldr	r3, [sp, #48]
	ldr	r2, .L124+12
	str	r3, [r2]
	.loc 2 4672 0
	mov	r0, r0	@ nop
.L94:
	b	.L117
.L116:
	.loc 2 4675 0
	mov	r0, r0	@ nop
.L90:
	.loc 2 4679 0
	ldr	r3, [sp, #120]
	ldr	r2, [sp, #64]
	cmp	r2, r3
	bls	.L95
	.loc 2 4680 0
	ldr	r3, [sp, #120]
	add	r3, r3, #100
	mov	r2, r3
	ldr	r3, [sp, #64]
	cmp	r2, r3
	bcc	.L118
	.loc 2 4682 0
	ldr	r3, .L124+12
	ldr	r3, [r3, #4]
	rsb	r3, r3, #0
	str	r3, [sp, #96]
	.loc 2 4683 0
	ldr	r3, .L124+12
	ldr	r3, [r3, #8]
	rsb	r3, r3, #0
	str	r3, [sp, #92]
	.loc 2 4685 0
	mov	r3, #20
	str	r3, [sp, #44]
	.loc 2 4686 0
	ldr	r3, [sp, #96]
	str	r3, [sp, #40]
	.loc 2 4687 0
	ldr	r3, [sp, #92]
	str	r3, [sp, #36]
	.loc 2 4688 0
	ldr	r3, [sp, #196]
	str	r3, [sp, #32]
	.loc 2 4690 0
	ldr	r3, .L124+12
	ldr	r3, [r3, #12]
	cmp	r3, #20
	beq	.L97
	.loc 2 4691 0
	ldr	r3, .L124+16
	mov	r2, #0
	str	r2, [r3]
.L97:
	.loc 2 4693 0
	ldr	r3, .L124+12
	ldr	r2, [r3, #12]
	ldr	r3, [sp, #44]
	cmp	r2, r3
	bgt	.L119
	.loc 2 4694 0
	ldr	r2, .L124+12
	ldr	r3, [sp, #44]
	str	r3, [r2, #12]
	.loc 2 4695 0
	ldr	r2, .L124+12
	ldr	r3, [sp, #40]
	str	r3, [r2, #4]
	.loc 2 4696 0
	ldr	r2, .L124+12
	ldr	r3, [sp, #36]
	str	r3, [r2, #8]
	.loc 2 4697 0
	ldr	r3, [sp, #32]
	ldr	r2, .L124+12
	str	r3, [r2]
	.loc 2 4700 0
	mov	r0, r0	@ nop
.L99:
	b	.L119
.L118:
	.loc 2 4703 0
	mov	r0, r0	@ nop
.L95:
	.loc 2 4707 0
	ldr	r3, [sp, #116]
	ldr	r2, [sp, #64]
	cmp	r2, r3
	bls	.L100
	.loc 2 4708 0
	ldr	r3, [sp, #112]
	ldr	r2, [sp, #64]
	cmp	r2, r3
	bhi	.L120
	.loc 2 4709 0
	mov	r3, #100
	str	r3, [sp, #96]
	.loc 2 4710 0
	mov	r3, #100
	str	r3, [sp, #92]
	.loc 2 4711 0
	mov	r3, #20
	str	r3, [sp, #28]
	.loc 2 4712 0
	ldr	r3, [sp, #96]
	str	r3, [sp, #24]
	.loc 2 4713 0
	ldr	r3, [sp, #92]
	str	r3, [sp, #20]
	.loc 2 4714 0
	ldr	r3, [sp, #196]
	str	r3, [sp, #16]
	.loc 2 4716 0
	ldr	r3, .L124+12
	ldr	r3, [r3, #12]
	cmp	r3, #20
	beq	.L102
	.loc 2 4717 0
	ldr	r3, .L124+16
	mov	r2, #0
	str	r2, [r3]
.L102:
	.loc 2 4719 0
	ldr	r3, .L124+12
	ldr	r2, [r3, #12]
	ldr	r3, [sp, #28]
	cmp	r2, r3
	bgt	.L121
	.loc 2 4720 0
	ldr	r2, .L124+12
	ldr	r3, [sp, #28]
	str	r3, [r2, #12]
	.loc 2 4721 0
	ldr	r2, .L124+12
	ldr	r3, [sp, #24]
	str	r3, [r2, #4]
	.loc 2 4722 0
	ldr	r2, .L124+12
	ldr	r3, [sp, #20]
	str	r3, [r2, #8]
	.loc 2 4723 0
	ldr	r3, [sp, #16]
	ldr	r2, .L124+12
	str	r3, [r2]
	.loc 2 4726 0
	mov	r0, r0	@ nop
.L104:
	b	.L121
.L120:
	.loc 2 4729 0
	mov	r0, r0	@ nop
.L100:
	.loc 2 4733 0
	ldr	r3, [sp, #112]
	ldr	r2, [sp, #64]
	cmp	r2, r3
	bls	.L122
	.loc 2 4734 0
	ldr	r3, .L124+16
	mov	r2, #0
	str	r2, [r3]
	.loc 2 4757 0
	b	.L122
.L84:
	.loc 2 4738 0
	mov	r3, #30
	str	r3, [sp, #12]
	.loc 2 4739 0
	mov	r3, #100
	str	r3, [sp, #8]
	.loc 2 4740 0
	mov	r3, #100
	str	r3, [sp, #4]
	.loc 2 4741 0
	mov	r3, #150
	str	r3, [sp]
	.loc 2 4743 0
	ldr	r3, .L124+12
	ldr	r3, [r3, #12]
	cmp	r3, #20
	beq	.L106
	.loc 2 4744 0
	ldr	r3, .L124+16
	mov	r2, #0
	str	r2, [r3]
.L106:
	.loc 2 4746 0
	ldr	r3, .L124+12
	ldr	r2, [r3, #12]
	ldr	r3, [sp, #12]
	cmp	r2, r3
	bgt	.L123
	.loc 2 4747 0
	ldr	r2, .L124+12
	ldr	r3, [sp, #12]
	str	r3, [r2, #12]
	.loc 2 4748 0
	ldr	r2, .L124+12
	ldr	r3, [sp, #8]
	str	r3, [r2, #4]
	.loc 2 4749 0
	ldr	r2, .L124+12
	ldr	r3, [sp, #4]
	str	r3, [r2, #8]
	.loc 2 4750 0
	ldr	r3, [sp]
	ldr	r2, .L124+12
	str	r3, [r2]
	.loc 2 4753 0
	b	.L123
.L115:
	.loc 2 4645 0
	mov	r0, r0	@ nop
	b	.L105
.L117:
	.loc 2 4672 0
	mov	r0, r0	@ nop
	b	.L105
.L119:
	.loc 2 4700 0
	mov	r0, r0	@ nop
	b	.L105
.L121:
	.loc 2 4726 0
	mov	r0, r0	@ nop
	b	.L105
.L123:
	.loc 2 4753 0
	mov	r0, r0	@ nop
.L105:
	.loc 2 4757 0 discriminator 15
	mov	r0, r0	@ nop
.L122:
	.loc 2 4757 0 is_stmt 0
	mov	r0, r0	@ nop
	.loc 2 4759 0 is_stmt 1
	add	sp, sp, #200
	.cfi_def_cfa_offset 0
	@ sp needed
	bx	lr
.L125:
	.align	2
.L124:
	.word	3000
	.word	distance_state
	.word	LastSonarValue
	.word	dc
	.word	SeekStarted
	.cfi_endproc
.LFE29:
	.size	TaskMainSonarSensorTask, .-TaskMainSonarSensorTask
	.align	2
	.global	TaskMainDisplayTask
	.type	TaskMainDisplayTask, %function
TaskMainDisplayTask:
.LFB30:
	.loc 2 4761 0
	.cfi_startproc
	@ Function supports interworking.
	@ args = 0, pretend = 0, frame = 264
	@ frame_needed = 0, uses_anonymous_args = 0
	@ link register save eliminated.
	sub	sp, sp, #264
	.cfi_def_cfa_offset 264
	.loc 2 4857 0
	mov	r3, #0
	str	r3, [sp, #208]
	.loc 2 4858 0
	mov	r3, #0
	str	r3, [sp, #204]
	.loc 2 4859 0
	ldr	r2, .L254
	ldr	r3, [sp, #208]
	str	r3, [r2]
	.loc 2 4860 0
	ldr	r2, .L254+4
	ldr	r3, [sp, #204]
	str	r3, [r2]
	.loc 2 4861 0
	mov	r0, r0	@ nop
.L127:
	.loc 2 4863 0
	mov	r3, #5
	str	r3, [sp, #260]
	.loc 2 4864 0
	b	.L128
.L131:
	.loc 2 4865 0
	.syntax divided
@ 4865 "sumo.c" 1
	1:
        .section .wcet_annot
        .long 1b
        .long 1
        .long 5
                        .text
@ 0 "" 2
	.loc 2 4866 0
	.arm
	.syntax divided
	ldr	r3, [sp, #260]
	cmp	r3, #10
	beq	.L129
	.loc 2 4868 0
	ldr	r3, .L254
	ldr	r3, [r3]
	add	r3, r3, #1
	ldr	r2, .L254
	str	r3, [r2]
	b	.L130
.L129:
	.loc 2 4870 0
	ldr	r3, .L254
	mov	r2, #0
	str	r2, [r3]
	.loc 2 4871 0
	ldr	r3, .L254+4
	ldr	r3, [r3]
	add	r3, r3, #1
	ldr	r2, .L254+4
	str	r3, [r2]
.L130:
	.loc 2 4873 0
	ldr	r3, [sp, #260]
	add	r3, r3, #1
	str	r3, [sp, #260]
.L128:
	.loc 2 4864 0
	ldr	r3, [sp, #260]
	cmp	r3, #0
	bne	.L131
	.loc 2 4875 0
	mov	r0, r0	@ nop
.L132:
	.loc 2 4877 0
	ldr	r3, .L254+8
	ldr	r3, [r3, #12]
	cmp	r3, #20
	beq	.L134
	cmp	r3, #20
	bgt	.L135
	cmp	r3, #5
	beq	.L136
	b	.L133
.L135:
	cmp	r3, #30
	beq	.L137
	cmp	r3, #50
	beq	.L138
	b	.L133
.L136:
	.loc 2 4879 0
	mov	r3, #4
	str	r3, [sp, #256]
	.loc 2 4880 0
	b	.L139
.L142:
	.loc 2 4881 0
	.syntax divided
@ 4881 "sumo.c" 1
	1:
        .section .wcet_annot
        .long 1b
        .long 1
        .long 4
                        .text
@ 0 "" 2
	.loc 2 4882 0
	.arm
	.syntax divided
	ldr	r3, [sp, #256]
	cmp	r3, #10
	beq	.L140
	.loc 2 4884 0
	ldr	r3, .L254
	ldr	r3, [r3]
	add	r3, r3, #1
	ldr	r2, .L254
	str	r3, [r2]
	b	.L141
.L140:
	.loc 2 4886 0
	ldr	r3, .L254
	mov	r2, #0
	str	r2, [r3]
	.loc 2 4887 0
	ldr	r3, .L254+4
	ldr	r3, [r3]
	add	r3, r3, #1
	ldr	r2, .L254+4
	str	r3, [r2]
.L141:
	.loc 2 4889 0
	ldr	r3, [sp, #256]
	add	r3, r3, #1
	str	r3, [sp, #256]
.L139:
	.loc 2 4880 0
	ldr	r3, [sp, #256]
	cmp	r3, #0
	bne	.L142
	.loc 2 4891 0
	mov	r0, r0	@ nop
.L143:
	.loc 2 4893 0
	b	.L144
.L134:
	.loc 2 4895 0
	mov	r3, #4
	str	r3, [sp, #252]
	.loc 2 4896 0
	b	.L145
.L148:
	.loc 2 4897 0
	.syntax divided
@ 4897 "sumo.c" 1
	1:
        .section .wcet_annot
        .long 1b
        .long 1
        .long 4
                        .text
@ 0 "" 2
	.loc 2 4898 0
	.arm
	.syntax divided
	ldr	r3, [sp, #252]
	cmp	r3, #10
	beq	.L146
	.loc 2 4900 0
	ldr	r3, .L254
	ldr	r3, [r3]
	add	r3, r3, #1
	ldr	r2, .L254
	str	r3, [r2]
	b	.L147
.L146:
	.loc 2 4902 0
	ldr	r3, .L254
	mov	r2, #0
	str	r2, [r3]
	.loc 2 4903 0
	ldr	r3, .L254+4
	ldr	r3, [r3]
	add	r3, r3, #1
	ldr	r2, .L254+4
	str	r3, [r2]
.L147:
	.loc 2 4905 0
	ldr	r3, [sp, #252]
	add	r3, r3, #1
	str	r3, [sp, #252]
.L145:
	.loc 2 4896 0
	ldr	r3, [sp, #252]
	cmp	r3, #0
	bne	.L148
	.loc 2 4907 0
	mov	r0, r0	@ nop
.L149:
	.loc 2 4909 0
	b	.L144
.L137:
	.loc 2 4911 0
	mov	r3, #6
	str	r3, [sp, #248]
	.loc 2 4912 0
	b	.L150
.L153:
	.loc 2 4913 0
	.syntax divided
@ 4913 "sumo.c" 1
	1:
        .section .wcet_annot
        .long 1b
        .long 1
        .long 6
                        .text
@ 0 "" 2
	.loc 2 4914 0
	.arm
	.syntax divided
	ldr	r3, [sp, #248]
	cmp	r3, #10
	beq	.L151
	.loc 2 4916 0
	ldr	r3, .L254
	ldr	r3, [r3]
	add	r3, r3, #1
	ldr	r2, .L254
	str	r3, [r2]
	b	.L152
.L151:
	.loc 2 4918 0
	ldr	r3, .L254
	mov	r2, #0
	str	r2, [r3]
	.loc 2 4919 0
	ldr	r3, .L254+4
	ldr	r3, [r3]
	add	r3, r3, #1
	ldr	r2, .L254+4
	str	r3, [r2]
.L152:
	.loc 2 4921 0
	ldr	r3, [sp, #248]
	add	r3, r3, #1
	str	r3, [sp, #248]
.L150:
	.loc 2 4912 0
	ldr	r3, [sp, #248]
	cmp	r3, #0
	bne	.L153
	.loc 2 4923 0
	mov	r0, r0	@ nop
.L154:
	.loc 2 4925 0
	b	.L144
.L138:
	.loc 2 4927 0
	mov	r3, #5
	str	r3, [sp, #244]
	.loc 2 4928 0
	b	.L155
.L158:
	.loc 2 4929 0
	.syntax divided
@ 4929 "sumo.c" 1
	1:
        .section .wcet_annot
        .long 1b
        .long 1
        .long 5
                        .text
@ 0 "" 2
	.loc 2 4930 0
	.arm
	.syntax divided
	ldr	r3, [sp, #244]
	cmp	r3, #10
	beq	.L156
	.loc 2 4932 0
	ldr	r3, .L254
	ldr	r3, [r3]
	add	r3, r3, #1
	ldr	r2, .L254
	str	r3, [r2]
	b	.L157
.L156:
	.loc 2 4934 0
	ldr	r3, .L254
	mov	r2, #0
	str	r2, [r3]
	.loc 2 4935 0
	ldr	r3, .L254+4
	ldr	r3, [r3]
	add	r3, r3, #1
	ldr	r2, .L254+4
	str	r3, [r2]
.L157:
	.loc 2 4937 0
	ldr	r3, [sp, #244]
	add	r3, r3, #1
	str	r3, [sp, #244]
.L155:
	.loc 2 4928 0
	ldr	r3, [sp, #244]
	cmp	r3, #0
	bne	.L158
	.loc 2 4939 0
	mov	r0, r0	@ nop
.L159:
	.loc 2 4941 0
	b	.L144
.L133:
	.loc 2 4943 0
	mov	r3, #4
	str	r3, [sp, #240]
	.loc 2 4944 0
	b	.L160
.L163:
	.loc 2 4945 0
	.syntax divided
@ 4945 "sumo.c" 1
	1:
        .section .wcet_annot
        .long 1b
        .long 1
        .long 4
                        .text
@ 0 "" 2
	.loc 2 4946 0
	.arm
	.syntax divided
	ldr	r3, [sp, #240]
	cmp	r3, #10
	beq	.L161
	.loc 2 4948 0
	ldr	r3, .L254
	ldr	r3, [r3]
	add	r3, r3, #1
	ldr	r2, .L254
	str	r3, [r2]
	b	.L162
.L161:
	.loc 2 4950 0
	ldr	r3, .L254
	mov	r2, #0
	str	r2, [r3]
	.loc 2 4951 0
	ldr	r3, .L254+4
	ldr	r3, [r3]
	add	r3, r3, #1
	ldr	r2, .L254+4
	str	r3, [r2]
.L162:
	.loc 2 4953 0
	ldr	r3, [sp, #240]
	add	r3, r3, #1
	str	r3, [sp, #240]
.L160:
	.loc 2 4944 0
	ldr	r3, [sp, #240]
	cmp	r3, #0
	bne	.L163
	.loc 2 4955 0
	mov	r0, r0	@ nop
.L164:
	.loc 2 4958 0
	ldr	r3, .L254+8
	ldr	r3, [r3, #12]
	str	r3, [sp, #200]
	.loc 2 4959 0
	mov	r3, #3
	str	r3, [sp, #196]
	.loc 2 4961 0
	ldr	r3, [sp, #200]
	cmp	r3, #0
	bge	.L165
	.loc 2 4962 0
	ldr	r3, [sp, #200]
	rsb	r3, r3, #0
	str	r3, [sp, #192]
	.loc 2 4967 0
	b	.L241
.L165:
	.loc 2 4964 0
	ldr	r3, [sp, #200]
	str	r3, [sp, #192]
.L241:
	.loc 2 4967 0
	mov	r0, r0	@ nop
.L167:
	.loc 2 4971 0
	mov	r0, r0	@ nop
.L144:
	.loc 2 4973 0
	mov	r3, #0
	str	r3, [sp, #188]
	.loc 2 4974 0
	mov	r3, #1
	str	r3, [sp, #184]
	.loc 2 4975 0
	ldr	r2, .L254
	ldr	r3, [sp, #188]
	str	r3, [r2]
	.loc 2 4976 0
	ldr	r2, .L254+4
	ldr	r3, [sp, #184]
	str	r3, [r2]
	.loc 2 4977 0
	mov	r0, r0	@ nop
.L168:
	.loc 2 4979 0
	mov	r3, #10
	str	r3, [sp, #236]
	.loc 2 4980 0
	b	.L169
.L172:
	.loc 2 4981 0
	.syntax divided
@ 4981 "sumo.c" 1
	1:
        .section .wcet_annot
        .long 1b
        .long 1
        .long 10
                        .text
@ 0 "" 2
	.loc 2 4982 0
	.arm
	.syntax divided
	ldr	r3, [sp, #236]
	cmp	r3, #10
	beq	.L170
	.loc 2 4984 0
	ldr	r3, .L254
	ldr	r3, [r3]
	add	r3, r3, #1
	ldr	r2, .L254
	str	r3, [r2]
	b	.L171
.L170:
	.loc 2 4986 0
	ldr	r3, .L254
	mov	r2, #0
	str	r2, [r3]
	.loc 2 4987 0
	ldr	r3, .L254+4
	ldr	r3, [r3]
	add	r3, r3, #1
	ldr	r2, .L254+4
	str	r3, [r2]
.L171:
	.loc 2 4989 0
	ldr	r3, [sp, #236]
	add	r3, r3, #1
	str	r3, [sp, #236]
.L169:
	.loc 2 4980 0
	ldr	r3, [sp, #236]
	cmp	r3, #0
	bne	.L172
	.loc 2 4991 0
	mov	r0, r0	@ nop
.L173:
	.loc 2 4993 0
	mov	r3, #0
	str	r3, [sp, #180]
	.loc 2 4994 0
	mov	r3, #2
	str	r3, [sp, #176]
	.loc 2 4995 0
	ldr	r2, .L254
	ldr	r3, [sp, #180]
	str	r3, [r2]
	.loc 2 4996 0
	ldr	r2, .L254+4
	ldr	r3, [sp, #176]
	str	r3, [r2]
	.loc 2 4997 0
	mov	r0, r0	@ nop
.L174:
	.loc 2 5000 0
	ldr	r3, .L254+8
	ldr	r3, [r3, #4]
	str	r3, [sp, #172]
	.loc 2 5001 0
	mov	r3, #4
	str	r3, [sp, #168]
	.loc 2 5003 0
	ldr	r3, [sp, #172]
	cmp	r3, #0
	bge	.L175
	.loc 2 5004 0
	ldr	r3, [sp, #172]
	rsb	r3, r3, #0
	str	r3, [sp, #164]
	.loc 2 5009 0
	b	.L242
.L175:
	.loc 2 5006 0
	ldr	r3, [sp, #172]
	str	r3, [sp, #164]
.L242:
	.loc 2 5009 0
	mov	r0, r0	@ nop
.L177:
	.loc 2 5012 0
	mov	r3, #1
	str	r3, [sp, #232]
	.loc 2 5014 0
	b	.L178
.L181:
	.loc 2 5015 0
	.syntax divided
@ 5015 "sumo.c" 1
	1:
        .section .wcet_annot
        .long 1b
        .long 1
        .long 1
                        .text
@ 0 "" 2
	.loc 2 5016 0
	.arm
	.syntax divided
	ldr	r3, [sp, #232]
	cmp	r3, #10
	beq	.L179
	.loc 2 5018 0
	ldr	r3, .L254
	ldr	r3, [r3]
	add	r3, r3, #1
	ldr	r2, .L254
	str	r3, [r2]
	b	.L180
.L179:
	.loc 2 5020 0
	ldr	r3, .L254
	mov	r2, #0
	str	r2, [r3]
	.loc 2 5021 0
	ldr	r3, .L254+4
	ldr	r3, [r3]
	add	r3, r3, #1
	ldr	r2, .L254+4
	str	r3, [r2]
.L180:
	.loc 2 5023 0
	ldr	r3, [sp, #232]
	add	r3, r3, #1
	str	r3, [sp, #232]
.L178:
	.loc 2 5014 0
	ldr	r3, [sp, #232]
	cmp	r3, #0
	bne	.L181
	.loc 2 5025 0
	mov	r0, r0	@ nop
.L182:
	.loc 2 5028 0
	ldr	r3, .L254+8
	ldr	r3, [r3, #8]
	str	r3, [sp, #160]
	.loc 2 5029 0
	mov	r3, #4
	str	r3, [sp, #156]
	.loc 2 5031 0
	ldr	r3, [sp, #160]
	cmp	r3, #0
	bge	.L183
	.loc 2 5032 0
	ldr	r3, [sp, #160]
	rsb	r3, r3, #0
	str	r3, [sp, #152]
	.loc 2 5037 0
	b	.L243
.L183:
	.loc 2 5034 0
	ldr	r3, [sp, #160]
	str	r3, [sp, #152]
.L243:
	.loc 2 5037 0
	mov	r0, r0	@ nop
.L185:
	.loc 2 5040 0
	mov	r3, #0
	str	r3, [sp, #148]
	.loc 2 5041 0
	mov	r3, #3
	str	r3, [sp, #144]
	.loc 2 5042 0
	ldr	r2, .L254
	ldr	r3, [sp, #148]
	str	r3, [r2]
	.loc 2 5043 0
	ldr	r2, .L254+4
	ldr	r3, [sp, #144]
	str	r3, [r2]
	.loc 2 5045 0
	mov	r0, r0	@ nop
.L186:
	.loc 2 5047 0
	mov	r3, #9
	str	r3, [sp, #228]
	.loc 2 5048 0
	b	.L187
.L190:
	.loc 2 5049 0
	.syntax divided
@ 5049 "sumo.c" 1
	1:
        .section .wcet_annot
        .long 1b
        .long 1
        .long 9
                        .text
@ 0 "" 2
	.loc 2 5050 0
	.arm
	.syntax divided
	ldr	r3, [sp, #228]
	cmp	r3, #10
	beq	.L188
	.loc 2 5052 0
	ldr	r3, .L254
	ldr	r3, [r3]
	add	r3, r3, #1
	ldr	r2, .L254
	str	r3, [r2]
	b	.L189
.L188:
	.loc 2 5054 0
	ldr	r3, .L254
	mov	r2, #0
	str	r2, [r3]
	.loc 2 5055 0
	ldr	r3, .L254+4
	ldr	r3, [r3]
	add	r3, r3, #1
	ldr	r2, .L254+4
	str	r3, [r2]
.L189:
	.loc 2 5057 0
	ldr	r3, [sp, #228]
	add	r3, r3, #1
	str	r3, [sp, #228]
.L187:
	.loc 2 5048 0
	ldr	r3, [sp, #228]
	cmp	r3, #0
	bne	.L190
	.loc 2 5059 0
	mov	r0, r0	@ nop
.L191:
	.loc 2 5062 0
	ldr	r3, .L254+8
	ldr	r3, [r3]
	str	r3, [sp, #140]
	.loc 2 5063 0
	mov	r3, #0
	str	r3, [sp, #136]
	.loc 2 5065 0
	ldr	r3, [sp, #140]
	cmp	r3, #0
	bge	.L192
	.loc 2 5066 0
	ldr	r3, [sp, #140]
	rsb	r3, r3, #0
	str	r3, [sp, #132]
	.loc 2 5071 0
	b	.L244
.L192:
	.loc 2 5068 0
	ldr	r3, [sp, #140]
	str	r3, [sp, #132]
.L244:
	.loc 2 5071 0
	mov	r0, r0	@ nop
.L194:
	.loc 2 5075 0
	mov	r3, #0
	str	r3, [sp, #128]
	.loc 2 5076 0
	mov	r3, #4
	str	r3, [sp, #124]
	.loc 2 5077 0
	ldr	r2, .L254
	ldr	r3, [sp, #128]
	str	r3, [r2]
	.loc 2 5078 0
	ldr	r2, .L254+4
	ldr	r3, [sp, #124]
	str	r3, [r2]
	.loc 2 5080 0
	mov	r0, r0	@ nop
.L195:
	.loc 2 5082 0
	mov	r3, #6
	str	r3, [sp, #224]
	.loc 2 5083 0
	b	.L196
.L199:
	.loc 2 5084 0
	.syntax divided
@ 5084 "sumo.c" 1
	1:
        .section .wcet_annot
        .long 1b
        .long 1
        .long 6
                        .text
@ 0 "" 2
	.loc 2 5085 0
	.arm
	.syntax divided
	ldr	r3, [sp, #224]
	cmp	r3, #10
	beq	.L197
	.loc 2 5087 0
	ldr	r3, .L254
	ldr	r3, [r3]
	add	r3, r3, #1
	ldr	r2, .L254
	str	r3, [r2]
	b	.L198
.L197:
	.loc 2 5089 0
	ldr	r3, .L254
	mov	r2, #0
	str	r2, [r3]
	.loc 2 5090 0
	ldr	r3, .L254+4
	ldr	r3, [r3]
	add	r3, r3, #1
	ldr	r2, .L254+4
	str	r3, [r2]
.L198:
	.loc 2 5092 0
	ldr	r3, [sp, #224]
	add	r3, r3, #1
	str	r3, [sp, #224]
.L196:
	.loc 2 5083 0
	ldr	r3, [sp, #224]
	cmp	r3, #0
	bne	.L199
	.loc 2 5094 0
	mov	r0, r0	@ nop
.L200:
	.loc 2 5097 0
	mov	r3, #1
	str	r3, [sp, #120]
	.loc 2 5098 0
	ldr	r3, [sp, #120]
	str	r3, [sp, #116]
	.loc 2 5099 0
	mov	r3, #0
	str	r3, [sp, #112]
	.loc 2 5101 0
	ldr	r3, [sp, #116]
	cmp	r3, #0
	bge	.L201
	.loc 2 5102 0
	ldr	r3, [sp, #116]
	rsb	r3, r3, #0
	str	r3, [sp, #108]
	.loc 2 5107 0
	b	.L245
.L201:
	.loc 2 5104 0
	ldr	r3, [sp, #116]
	str	r3, [sp, #108]
.L245:
	.loc 2 5107 0
	mov	r0, r0	@ nop
.L203:
	.loc 2 5110 0
	mov	r3, #0
	strb	r3, [sp, #107]
	.loc 2 5111 0
	ldrb	r2, [sp, #107]	@ zero_extendqisi2
	ldr	r1, .L254+12
	mov	r3, r2
	mov	r3, r3, asl #3
	rsb	r3, r2, r3
	mov	r3, r3, asl #1
	add	r3, r1, r3
	add	r3, r3, #8
	ldrh	r3, [r3]	@ movhi
	strh	r3, [sp, #104]	@ movhi
	.loc 2 5113 0
	mov	r0, r0	@ nop
.L204:
	.loc 2 5115 0
	ldrh	r3, [sp, #104]	@ movhi
	strh	r3, [sp, #102]	@ movhi
	.loc 2 5116 0
	ldrh	r3, [sp, #102]	@ movhi
	strh	r3, [sp, #100]	@ movhi
	.loc 2 5117 0
	mov	r3, #0
	str	r3, [sp, #96]
	.loc 2 5118 0
	mov	r3, #5
	str	r3, [sp, #92]
	.loc 2 5119 0
	ldr	r2, .L254
	ldr	r3, [sp, #96]
	str	r3, [r2]
	.loc 2 5120 0
	ldr	r2, .L254+4
	ldr	r3, [sp, #92]
	str	r3, [r2]
	.loc 2 5121 0
	mov	r0, r0	@ nop
.L205:
	.loc 2 5123 0
	mov	r3, #5
	str	r3, [sp, #220]
	.loc 2 5124 0
	b	.L206
.L209:
	.loc 2 5125 0
	.syntax divided
@ 5125 "sumo.c" 1
	1:
        .section .wcet_annot
        .long 1b
        .long 1
        .long 5
                        .text
@ 0 "" 2
	.loc 2 5126 0
	.arm
	.syntax divided
	ldr	r3, [sp, #220]
	cmp	r3, #10
	beq	.L207
	.loc 2 5128 0
	ldr	r3, .L254
	ldr	r3, [r3]
	add	r3, r3, #1
	ldr	r2, .L254
	str	r3, [r2]
	b	.L208
.L207:
	.loc 2 5130 0
	ldr	r3, .L254
	mov	r2, #0
	str	r2, [r3]
	.loc 2 5131 0
	ldr	r3, .L254+4
	ldr	r3, [r3]
	add	r3, r3, #1
	ldr	r2, .L254+4
	str	r3, [r2]
.L208:
	.loc 2 5133 0
	ldr	r3, [sp, #220]
	add	r3, r3, #1
	str	r3, [sp, #220]
.L206:
	.loc 2 5124 0
	ldr	r3, [sp, #220]
	cmp	r3, #0
	bne	.L209
	.loc 2 5135 0
	mov	r0, r0	@ nop
.L210:
	.loc 2 5138 0
	ldrh	r3, [sp, #100]
	str	r3, [sp, #88]
	.loc 2 5139 0
	mov	r3, #0
	str	r3, [sp, #84]
	.loc 2 5141 0
	ldr	r3, [sp, #88]
	cmp	r3, #0
	bge	.L211
	.loc 2 5142 0
	ldr	r3, [sp, #88]
	rsb	r3, r3, #0
	str	r3, [sp, #80]
	.loc 2 5147 0
	b	.L246
.L211:
	.loc 2 5144 0
	ldr	r3, [sp, #88]
	str	r3, [sp, #80]
.L246:
	.loc 2 5147 0
	mov	r0, r0	@ nop
.L213:
	.loc 2 5150 0
	mov	r3, #1
	strb	r3, [sp, #79]
	.loc 2 5151 0
	mov	r3, #1
	str	r3, [sp, #72]
	.loc 2 5153 0
	ldr	r3, [sp, #72]
	cmp	r3, #0
	bne	.L214
	.loc 2 5155 0
	ldrb	r3, [sp, #79]	@ zero_extendqisi2
	str	r3, [sp, #68]
	.loc 2 5156 0
	mov	r3, #1
	str	r3, [sp, #64]
	.loc 2 5157 0
	mov	r3, #66
	str	r3, [sp, #60]
	.loc 2 5158 0
	mov	r3, #1
	str	r3, [sp, #56]
	.loc 2 5161 0
	mov	r3, #0
	str	r3, [sp, #52]
	.loc 2 5162 0
	ldr	r3, [sp, #68]
	cmp	r3, #0
	blt	.L247
	.loc 2 5165 0
	ldr	r3, [sp, #68]
	cmp	r3, #3
	bgt	.L248
	.loc 2 5168 0
	mov	r3, #1
	str	r3, [sp, #48]
	.loc 2 5169 0
	ldr	r3, [sp, #48]
	cmp	r3, #0
	bne	.L249
	.loc 2 5192 0
	ldr	r3, [sp, #56]
	cmp	r3, #0
	beq	.L250
	.loc 2 5195 0
	ldr	r3, [sp, #52]
	cmp	r3, #0
	bne	.L251
	b	.L219
.L250:
	.loc 2 5193 0
	mov	r0, r0	@ nop
.L219:
	.loc 2 5205 0
	ldr	r3, [sp, #52]
	cmp	r3, #0
	beq	.L221
	.loc 2 5206 0
	mov	r3, #0
	str	r3, [sp, #44]
	.loc 2 5226 0
	b	.L251
.L221:
	.loc 2 5208 0
	mov	r3, #1
	str	r3, [sp, #44]
	.loc 2 5226 0
	b	.L251
.L247:
	.loc 2 5163 0
	mov	r0, r0	@ nop
	b	.L214
.L248:
	.loc 2 5166 0
	mov	r0, r0	@ nop
	b	.L214
.L249:
	.loc 2 5170 0
	mov	r0, r0	@ nop
	b	.L214
.L251:
	.loc 2 5226 0
	mov	r0, r0	@ nop
.L214:
	.loc 2 5229 0
	ldrb	r3, [sp, #79]	@ zero_extendqisi2
	ldr	r2, .L254+16
	ldr	r3, [r2, r3, asl #2]
	str	r3, [sp, #40]
	.loc 2 5230 0
	mov	r0, r0	@ nop
.L222:
	.loc 2 5232 0
	ldr	r3, [sp, #40]
	str	r3, [sp, #36]
	.loc 2 5233 0
	ldr	r3, [sp, #36]
	str	r3, [sp, #32]
	.loc 2 5234 0
	mov	r3, #0
	str	r3, [sp, #28]
	.loc 2 5235 0
	mov	r3, #6
	str	r3, [sp, #24]
	.loc 2 5236 0
	ldr	r2, .L254
	ldr	r3, [sp, #28]
	str	r3, [r2]
	.loc 2 5237 0
	ldr	r2, .L254+4
	ldr	r3, [sp, #24]
	str	r3, [r2]
	.loc 2 5238 0
	mov	r0, r0	@ nop
.L223:
	.loc 2 5240 0
	mov	r3, #5
	str	r3, [sp, #216]
	.loc 2 5241 0
	b	.L224
.L227:
	.loc 2 5242 0
	.syntax divided
@ 5242 "sumo.c" 1
	1:
        .section .wcet_annot
        .long 1b
        .long 1
        .long 5
                        .text
@ 0 "" 2
	.loc 2 5243 0
	.arm
	.syntax divided
	ldr	r3, [sp, #216]
	cmp	r3, #10
	beq	.L225
	.loc 2 5245 0
	ldr	r3, .L254
	ldr	r3, [r3]
	add	r3, r3, #1
	ldr	r2, .L254
	str	r3, [r2]
	b	.L226
.L225:
	.loc 2 5247 0
	ldr	r3, .L254
	mov	r2, #0
	str	r2, [r3]
	.loc 2 5248 0
	ldr	r3, .L254+4
	ldr	r3, [r3]
	add	r3, r3, #1
	ldr	r2, .L254+4
	str	r3, [r2]
.L226:
	.loc 2 5250 0
	ldr	r3, [sp, #216]
	add	r3, r3, #1
	str	r3, [sp, #216]
.L224:
	.loc 2 5241 0
	ldr	r3, [sp, #216]
	cmp	r3, #0
	bne	.L227
	.loc 2 5252 0
	mov	r0, r0	@ nop
.L228:
	.loc 2 5255 0
	ldr	r3, [sp, #32]
	str	r3, [sp, #20]
	.loc 2 5256 0
	mov	r3, #0
	str	r3, [sp, #16]
	.loc 2 5258 0
	ldr	r3, [sp, #20]
	cmp	r3, #0
	bge	.L229
	.loc 2 5259 0
	ldr	r3, [sp, #20]
	rsb	r3, r3, #0
	str	r3, [sp, #12]
	.loc 2 5264 0
	b	.L252
.L229:
	.loc 2 5261 0
	ldr	r3, [sp, #20]
	str	r3, [sp, #12]
.L252:
	.loc 2 5264 0
	mov	r0, r0	@ nop
.L231:
	.loc 2 5267 0
	mov	r3, #1
	str	r3, [sp, #212]
	.loc 2 5269 0
	b	.L232
.L235:
	.loc 2 5270 0
	.syntax divided
@ 5270 "sumo.c" 1
	1:
        .section .wcet_annot
        .long 1b
        .long 1
        .long 1
                        .text
@ 0 "" 2
	.loc 2 5271 0
	.arm
	.syntax divided
	ldr	r3, [sp, #212]
	cmp	r3, #10
	beq	.L233
	.loc 2 5273 0
	ldr	r3, .L254
	ldr	r3, [r3]
	add	r3, r3, #1
	ldr	r2, .L254
	str	r3, [r2]
	b	.L234
.L233:
	.loc 2 5275 0
	ldr	r3, .L254
	mov	r2, #0
	str	r2, [r3]
	.loc 2 5276 0
	ldr	r3, .L254+4
	ldr	r3, [r3]
	add	r3, r3, #1
	ldr	r2, .L254+4
	str	r3, [r2]
.L234:
	.loc 2 5278 0
	ldr	r3, [sp, #212]
	add	r3, r3, #1
	str	r3, [sp, #212]
.L232:
	.loc 2 5269 0
	ldr	r3, [sp, #212]
	cmp	r3, #0
	bne	.L235
	.loc 2 5280 0
	mov	r0, r0	@ nop
.L236:
	.loc 2 5283 0
	ldr	r3, .L254+20
	ldr	r3, [r3]
	str	r3, [sp, #8]
	.loc 2 5284 0
	mov	r3, #0
	str	r3, [sp, #4]
	.loc 2 5286 0
	ldr	r3, [sp, #8]
	cmp	r3, #0
	bge	.L237
	.loc 2 5287 0
	ldr	r3, [sp, #8]
	rsb	r3, r3, #0
	str	r3, [sp]
	.loc 2 5292 0
	b	.L253
.L237:
	.loc 2 5289 0
	ldr	r3, [sp, #8]
	str	r3, [sp]
.L253:
	.loc 2 5292 0
	mov	r0, r0	@ nop
.L239:
	.loc 2 5298 0
	mov	r0, r0	@ nop
	.loc 2 5300 0
	add	sp, sp, #264
	.cfi_def_cfa_offset 0
	@ sp needed
	bx	lr
.L255:
	.align	2
.L254:
	.word	display_x
	.word	display_y
	.word	dc
	.word	sensor_data
	.word	distance_state
	.word	LastSonarValue
	.cfi_endproc
.LFE30:
	.size	TaskMainDisplayTask, .-TaskMainDisplayTask
	.align	2
	.global	TaskMainMotorcontrolTask_blk
	.type	TaskMainMotorcontrolTask_blk, %function
TaskMainMotorcontrolTask_blk:
.LFB31:
	.loc 2 5302 0
	.cfi_startproc
	@ Function supports interworking.
	@ args = 0, pretend = 0, frame = 48
	@ frame_needed = 0, uses_anonymous_args = 0
	@ link register save eliminated.
	sub	sp, sp, #48
	.cfi_def_cfa_offset 48
	.loc 2 5316 0
	ldr	r3, .L274
	ldr	r3, [r3]
	cmp	r3, #0
	beq	.L257
	.loc 2 5317 0
	ldr	r3, .L274
	ldr	r3, [r3]
	sub	r3, r3, #50
	ldr	r2, .L274
	str	r3, [r2]
	b	.L258
.L257:
	.loc 2 5319 0
	ldr	r3, .L274
	mov	r2, #5
	str	r2, [r3, #12]
	.loc 2 5320 0
	ldr	r3, .L274
	mov	r2, #0
	str	r2, [r3]
	.loc 2 5321 0
	ldr	r3, .L274
	mov	r2, #0
	str	r2, [r3, #4]
	.loc 2 5322 0
	ldr	r3, .L274
	mov	r2, #0
	str	r2, [r3, #8]
.L258:
	.loc 2 5324 0
	mov	r3, #1
	str	r3, [sp, #36]
	.loc 2 5325 0
	ldr	r3, .L274
	ldr	r3, [r3, #4]
	rsb	r3, r3, #0
	str	r3, [sp, #44]
	.loc 2 5326 0
	mov	r3, #1
	str	r3, [sp, #32]
	.loc 2 5327 0
	ldr	r3, [sp, #36]
	cmp	r3, #2
	bhi	.L270
	.loc 2 5328 0
	ldr	r3, [sp, #44]
	cmp	r3, #100
	ble	.L260
	.loc 2 5329 0
	mov	r3, #100
	str	r3, [sp, #44]
.L260:
	.loc 2 5331 0
	ldr	r3, [sp, #44]
	cmn	r3, #100
	bge	.L261
	.loc 2 5332 0
	mvn	r3, #99
	str	r3, [sp, #44]
.L261:
	.loc 2 5334 0
	ldr	r2, .L274+4
	ldr	r3, [sp, #36]
	mov	r3, r3, asl #4
	add	r3, r2, r3
	ldr	r2, [sp, #44]
	str	r2, [r3, #8]
	.loc 2 5335 0
	ldr	r3, [sp, #36]
	str	r3, [sp, #28]
	.loc 2 5336 0
	ldr	r3, [sp, #44]
	str	r3, [sp, #24]
	.loc 2 5337 0
	ldr	r3, [sp, #32]
	str	r3, [sp, #20]
	.loc 2 5338 0
	ldr	r3, [sp, #28]
	cmp	r3, #2
	bhi	.L271
	.loc 2 5339 0
	ldr	r3, [sp, #24]
	mov	r3, r3, asl #24
	mov	r1, r3, asr #24
	ldr	r2, .L274+8
	ldr	r3, [sp, #28]
	add	r3, r2, r3
	add	r3, r3, #2
	mov	r2, r1
	strb	r2, [r3]
	.loc 2 5340 0
	ldr	r3, [sp, #20]
	cmp	r3, #0
	beq	.L263
	.loc 2 5341 0
	ldr	r3, .L274+8
	ldrb	r3, [r3, #6]	@ zero_extendqisi2
	mov	r3, r3, asl #24
	mov	r2, r3, asr #24
	mov	r1, #1
	ldr	r3, [sp, #28]
	mov	r3, r1, asl r3
	mov	r3, r3, asl #24
	mov	r3, r3, asr #24
	orr	r3, r2, r3
	mov	r3, r3, asl #24
	mov	r3, r3, asr #24
	and	r2, r3, #255
	ldr	r3, .L274+8
	strb	r2, [r3, #6]
	.loc 2 5346 0
	b	.L271
.L263:
	.loc 2 5343 0
	ldr	r3, .L274+8
	ldrb	r3, [r3, #6]	@ zero_extendqisi2
	mov	r3, r3, asl #24
	mov	r2, r3, asr #24
	mov	r1, #1
	ldr	r3, [sp, #28]
	mov	r3, r1, asl r3
	mov	r3, r3, asl #24
	mov	r3, r3, asr #24
	mvn	r3, r3
	mov	r3, r3, asl #24
	mov	r3, r3, asr #24
	and	r3, r3, r2
	mov	r3, r3, asl #24
	mov	r3, r3, asr #24
	and	r2, r3, #255
	ldr	r3, .L274+8
	strb	r2, [r3, #6]
.L271:
	.loc 2 5346 0
	mov	r0, r0	@ nop
.L259:
.L270:
	.loc 2 5349 0
	mov	r0, r0	@ nop
.L264:
	.loc 2 5351 0
	mov	r3, #0
	str	r3, [sp, #16]
	.loc 2 5352 0
	ldr	r3, .L274
	ldr	r3, [r3, #8]
	rsb	r3, r3, #0
	str	r3, [sp, #40]
	.loc 2 5353 0
	mov	r3, #1
	str	r3, [sp, #12]
	.loc 2 5354 0
	ldr	r3, [sp, #16]
	cmp	r3, #2
	bhi	.L272
	.loc 2 5355 0
	ldr	r3, [sp, #40]
	cmp	r3, #100
	ble	.L266
	.loc 2 5356 0
	mov	r3, #100
	str	r3, [sp, #40]
.L266:
	.loc 2 5358 0
	ldr	r3, [sp, #40]
	cmn	r3, #100
	bge	.L267
	.loc 2 5359 0
	mvn	r3, #99
	str	r3, [sp, #40]
.L267:
	.loc 2 5361 0
	ldr	r2, .L274+4
	ldr	r3, [sp, #16]
	mov	r3, r3, asl #4
	add	r3, r2, r3
	ldr	r2, [sp, #40]
	str	r2, [r3, #8]
	.loc 2 5362 0
	ldr	r3, [sp, #16]
	str	r3, [sp, #8]
	.loc 2 5363 0
	ldr	r3, [sp, #40]
	str	r3, [sp, #4]
	.loc 2 5364 0
	ldr	r3, [sp, #12]
	str	r3, [sp]
	.loc 2 5365 0
	ldr	r3, [sp, #8]
	cmp	r3, #2
	bhi	.L273
	.loc 2 5366 0
	ldr	r3, [sp, #4]
	mov	r3, r3, asl #24
	mov	r1, r3, asr #24
	ldr	r2, .L274+8
	ldr	r3, [sp, #8]
	add	r3, r2, r3
	add	r3, r3, #2
	mov	r2, r1
	strb	r2, [r3]
	.loc 2 5367 0
	ldr	r3, [sp]
	cmp	r3, #0
	beq	.L269
	.loc 2 5368 0
	ldr	r3, .L274+8
	ldrb	r3, [r3, #6]	@ zero_extendqisi2
	mov	r3, r3, asl #24
	mov	r2, r3, asr #24
	mov	r1, #1
	ldr	r3, [sp, #8]
	mov	r3, r1, asl r3
	mov	r3, r3, asl #24
	mov	r3, r3, asr #24
	orr	r3, r2, r3
	mov	r3, r3, asl #24
	mov	r3, r3, asr #24
	and	r2, r3, #255
	ldr	r3, .L274+8
	strb	r2, [r3, #6]
	.loc 2 5373 0
	b	.L273
.L269:
	.loc 2 5370 0
	ldr	r3, .L274+8
	ldrb	r3, [r3, #6]	@ zero_extendqisi2
	mov	r3, r3, asl #24
	mov	r2, r3, asr #24
	mov	r1, #1
	ldr	r3, [sp, #8]
	mov	r3, r1, asl r3
	mov	r3, r3, asl #24
	mov	r3, r3, asr #24
	mvn	r3, r3
	mov	r3, r3, asl #24
	mov	r3, r3, asr #24
	and	r3, r3, r2
	mov	r3, r3, asl #24
	mov	r3, r3, asr #24
	and	r2, r3, #255
	ldr	r3, .L274+8
	strb	r2, [r3, #6]
.L273:
	.loc 2 5373 0
	mov	r0, r0	@ nop
.L265:
.L272:
	.loc 2 5378 0
	mov	r0, r0	@ nop
	add	sp, sp, #48
	.cfi_def_cfa_offset 0
	@ sp needed
	bx	lr
.L275:
	.align	2
.L274:
	.word	dc
	.word	motor
	.word	io_to_avr
	.cfi_endproc
.LFE31:
	.size	TaskMainMotorcontrolTask_blk, .-TaskMainMotorcontrolTask_blk
	.align	2
	.global	TaskMainColorSensorTask_blk1
	.type	TaskMainColorSensorTask_blk1, %function
TaskMainColorSensorTask_blk1:
.LFB32:
	.loc 2 5381 0
	.cfi_startproc
	@ Function supports interworking.
	@ args = 0, pretend = 0, frame = 16
	@ frame_needed = 0, uses_anonymous_args = 0
	@ link register save eliminated.
	sub	sp, sp, #16
	.cfi_def_cfa_offset 16
	.loc 2 5396 0
	mov	r3, #50
	str	r3, [sp, #12]
	.loc 2 5397 0
	mvn	r3, #99
	str	r3, [sp, #8]
	.loc 2 5398 0
	mvn	r3, #99
	str	r3, [sp, #4]
	.loc 2 5399 0
	ldr	r3, .L280
	str	r3, [sp]
	.loc 2 5401 0
	ldr	r3, .L280+4
	ldr	r3, [r3, #12]
	cmp	r3, #20
	beq	.L277
	.loc 2 5402 0
	ldr	r3, .L280+8
	mov	r2, #0
	str	r2, [r3]
.L277:
	.loc 2 5404 0
	ldr	r3, .L280+4
	ldr	r2, [r3, #12]
	ldr	r3, [sp, #12]
	cmp	r2, r3
	bgt	.L279
	.loc 2 5405 0
	ldr	r2, .L280+4
	ldr	r3, [sp, #12]
	str	r3, [r2, #12]
	.loc 2 5406 0
	ldr	r2, .L280+4
	ldr	r3, [sp, #8]
	str	r3, [r2, #4]
	.loc 2 5407 0
	ldr	r2, .L280+4
	ldr	r3, [sp, #4]
	str	r3, [r2, #8]
	.loc 2 5408 0
	ldr	r3, [sp]
	ldr	r2, .L280+4
	str	r3, [r2]
.L279:
	.loc 2 5413 0
	mov	r0, r0	@ nop
	add	sp, sp, #16
	.cfi_def_cfa_offset 0
	@ sp needed
	bx	lr
.L281:
	.align	2
.L280:
	.word	1250
	.word	dc
	.word	SeekStarted
	.cfi_endproc
.LFE32:
	.size	TaskMainColorSensorTask_blk1, .-TaskMainColorSensorTask_blk1
	.align	2
	.global	TaskMainColorSensorTask_blk2
	.type	TaskMainColorSensorTask_blk2, %function
TaskMainColorSensorTask_blk2:
.LFB33:
	.loc 2 5415 0
	.cfi_startproc
	@ Function supports interworking.
	@ args = 0, pretend = 0, frame = 16
	@ frame_needed = 0, uses_anonymous_args = 0
	@ link register save eliminated.
	sub	sp, sp, #16
	.cfi_def_cfa_offset 16
	.loc 2 5430 0
	ldr	r3, .L286
	ldr	r3, [r3, #12]
	cmp	r3, #20
	beq	.L283
	.loc 2 5431 0
	ldr	r3, .L286+4
	mov	r2, #0
	str	r2, [r3]
.L283:
	.loc 2 5433 0
	ldr	r3, .L286
	ldr	r2, [r3, #12]
	ldr	r3, [sp, #12]
	cmp	r2, r3
	bgt	.L285
	.loc 2 5434 0
	ldr	r2, .L286
	ldr	r3, [sp, #12]
	str	r3, [r2, #12]
	.loc 2 5435 0
	ldr	r2, .L286
	ldr	r3, [sp, #8]
	str	r3, [r2, #4]
	.loc 2 5436 0
	ldr	r2, .L286
	ldr	r3, [sp, #4]
	str	r3, [r2, #8]
	.loc 2 5437 0
	ldr	r3, [sp]
	ldr	r2, .L286
	str	r3, [r2]
.L285:
	.loc 2 5439 0
	mov	r0, r0	@ nop
	add	sp, sp, #16
	.cfi_def_cfa_offset 0
	@ sp needed
	bx	lr
.L287:
	.align	2
.L286:
	.word	dc
	.word	SeekStarted
	.cfi_endproc
.LFE33:
	.size	TaskMainColorSensorTask_blk2, .-TaskMainColorSensorTask_blk2
	.align	2
	.global	TaskMainSonarSensorTask_blk1
	.type	TaskMainSonarSensorTask_blk1, %function
TaskMainSonarSensorTask_blk1:
.LFB34:
	.loc 2 5441 0
	.cfi_startproc
	@ Function supports interworking.
	@ args = 0, pretend = 0, frame = 16
	@ frame_needed = 0, uses_anonymous_args = 0
	@ link register save eliminated.
	sub	sp, sp, #16
	.cfi_def_cfa_offset 16
	.loc 2 5495 0
	ldr	r3, .L292
	ldr	r3, [r3, #12]
	cmp	r3, #20
	beq	.L289
	.loc 2 5496 0
	ldr	r3, .L292+4
	mov	r2, #0
	str	r2, [r3]
.L289:
	.loc 2 5498 0
	ldr	r3, .L292
	ldr	r2, [r3, #12]
	ldr	r3, [sp, #12]
	cmp	r2, r3
	bgt	.L291
	.loc 2 5499 0
	ldr	r2, .L292
	ldr	r3, [sp, #12]
	str	r3, [r2, #12]
	.loc 2 5500 0
	ldr	r2, .L292
	ldr	r3, [sp, #8]
	str	r3, [r2, #4]
	.loc 2 5501 0
	ldr	r2, .L292
	ldr	r3, [sp, #4]
	str	r3, [r2, #8]
	.loc 2 5502 0
	ldr	r3, [sp]
	ldr	r2, .L292
	str	r3, [r2]
.L291:
	.loc 2 5504 0
	mov	r0, r0	@ nop
	add	sp, sp, #16
	.cfi_def_cfa_offset 0
	@ sp needed
	bx	lr
.L293:
	.align	2
.L292:
	.word	dc
	.word	SeekStarted
	.cfi_endproc
.LFE34:
	.size	TaskMainSonarSensorTask_blk1, .-TaskMainSonarSensorTask_blk1
	.align	2
	.global	TaskMainSonarSensorTask_blk2
	.type	TaskMainSonarSensorTask_blk2, %function
TaskMainSonarSensorTask_blk2:
.LFB35:
	.loc 2 5506 0
	.cfi_startproc
	@ Function supports interworking.
	@ args = 0, pretend = 0, frame = 16
	@ frame_needed = 0, uses_anonymous_args = 0
	@ link register save eliminated.
	sub	sp, sp, #16
	.cfi_def_cfa_offset 16
	.loc 2 5560 0
	ldr	r3, .L298
	ldr	r3, [r3, #12]
	cmp	r3, #20
	beq	.L295
	.loc 2 5561 0
	ldr	r3, .L298+4
	mov	r2, #0
	str	r2, [r3]
.L295:
	.loc 2 5563 0
	ldr	r3, .L298
	ldr	r2, [r3, #12]
	ldr	r3, [sp, #12]
	cmp	r2, r3
	bgt	.L297
	.loc 2 5564 0
	ldr	r2, .L298
	ldr	r3, [sp, #12]
	str	r3, [r2, #12]
	.loc 2 5565 0
	ldr	r2, .L298
	ldr	r3, [sp, #8]
	str	r3, [r2, #4]
	.loc 2 5566 0
	ldr	r2, .L298
	ldr	r3, [sp, #4]
	str	r3, [r2, #8]
	.loc 2 5567 0
	ldr	r3, [sp]
	ldr	r2, .L298
	str	r3, [r2]
.L297:
	.loc 2 5569 0
	mov	r0, r0	@ nop
	add	sp, sp, #16
	.cfi_def_cfa_offset 0
	@ sp needed
	bx	lr
.L299:
	.align	2
.L298:
	.word	dc
	.word	SeekStarted
	.cfi_endproc
.LFE35:
	.size	TaskMainSonarSensorTask_blk2, .-TaskMainSonarSensorTask_blk2
	.align	2
	.global	TaskMainSonarSensorTask_blk3
	.type	TaskMainSonarSensorTask_blk3, %function
TaskMainSonarSensorTask_blk3:
.LFB36:
	.loc 2 5571 0
	.cfi_startproc
	@ Function supports interworking.
	@ args = 0, pretend = 0, frame = 8
	@ frame_needed = 0, uses_anonymous_args = 0
	@ link register save eliminated.
	sub	sp, sp, #8
	.cfi_def_cfa_offset 8
	.loc 2 5625 0
	ldr	r3, .L301
	ldr	r3, [r3, #4]
	rsb	r3, r3, #0
	str	r3, [sp, #4]
	.loc 2 5626 0
	ldr	r3, .L301
	ldr	r3, [r3, #8]
	rsb	r3, r3, #0
	str	r3, [sp]
	.loc 2 5627 0
	mov	r0, r0	@ nop
	add	sp, sp, #8
	.cfi_def_cfa_offset 0
	@ sp needed
	bx	lr
.L302:
	.align	2
.L301:
	.word	dc
	.cfi_endproc
.LFE36:
	.size	TaskMainSonarSensorTask_blk3, .-TaskMainSonarSensorTask_blk3
	.align	2
	.global	TaskMainSonarSensorTask_blk4
	.type	TaskMainSonarSensorTask_blk4, %function
TaskMainSonarSensorTask_blk4:
.LFB37:
	.loc 2 5630 0
	.cfi_startproc
	@ Function supports interworking.
	@ args = 0, pretend = 0, frame = 16
	@ frame_needed = 0, uses_anonymous_args = 0
	@ link register save eliminated.
	sub	sp, sp, #16
	.cfi_def_cfa_offset 16
	.loc 2 5684 0
	ldr	r3, .L307
	ldr	r3, [r3, #12]
	cmp	r3, #20
	beq	.L304
	.loc 2 5685 0
	ldr	r3, .L307+4
	mov	r2, #0
	str	r2, [r3]
.L304:
	.loc 2 5687 0
	ldr	r3, .L307
	ldr	r2, [r3, #12]
	ldr	r3, [sp, #12]
	cmp	r2, r3
	bgt	.L306
	.loc 2 5688 0
	ldr	r2, .L307
	ldr	r3, [sp, #12]
	str	r3, [r2, #12]
	.loc 2 5689 0
	ldr	r2, .L307
	ldr	r3, [sp, #8]
	str	r3, [r2, #4]
	.loc 2 5690 0
	ldr	r2, .L307
	ldr	r3, [sp, #4]
	str	r3, [r2, #8]
	.loc 2 5691 0
	ldr	r3, [sp]
	ldr	r2, .L307
	str	r3, [r2]
.L306:
	.loc 2 5693 0
	mov	r0, r0	@ nop
	add	sp, sp, #16
	.cfi_def_cfa_offset 0
	@ sp needed
	bx	lr
.L308:
	.align	2
.L307:
	.word	dc
	.word	SeekStarted
	.cfi_endproc
.LFE37:
	.size	TaskMainSonarSensorTask_blk4, .-TaskMainSonarSensorTask_blk4
	.align	2
	.global	TaskMainSonarSensorTask_blk5
	.type	TaskMainSonarSensorTask_blk5, %function
TaskMainSonarSensorTask_blk5:
.LFB38:
	.loc 2 5695 0
	.cfi_startproc
	@ Function supports interworking.
	@ args = 0, pretend = 0, frame = 8
	@ frame_needed = 0, uses_anonymous_args = 0
	@ link register save eliminated.
	sub	sp, sp, #8
	.cfi_def_cfa_offset 8
	.loc 2 5749 0
	ldr	r3, .L310
	ldr	r3, [r3, #4]
	rsb	r3, r3, #0
	str	r3, [sp, #4]
	.loc 2 5750 0
	ldr	r3, .L310
	ldr	r3, [r3, #8]
	rsb	r3, r3, #0
	str	r3, [sp]
	.loc 2 5751 0
	mov	r0, r0	@ nop
	add	sp, sp, #8
	.cfi_def_cfa_offset 0
	@ sp needed
	bx	lr
.L311:
	.align	2
.L310:
	.word	dc
	.cfi_endproc
.LFE38:
	.size	TaskMainSonarSensorTask_blk5, .-TaskMainSonarSensorTask_blk5
	.align	2
	.global	TaskMainSonarSensorTask_blk6
	.type	TaskMainSonarSensorTask_blk6, %function
TaskMainSonarSensorTask_blk6:
.LFB39:
	.loc 2 5753 0
	.cfi_startproc
	@ Function supports interworking.
	@ args = 0, pretend = 0, frame = 16
	@ frame_needed = 0, uses_anonymous_args = 0
	@ link register save eliminated.
	sub	sp, sp, #16
	.cfi_def_cfa_offset 16
	.loc 2 5807 0
	ldr	r3, .L316
	ldr	r3, [r3, #12]
	cmp	r3, #20
	beq	.L313
	.loc 2 5808 0
	ldr	r3, .L316+4
	mov	r2, #0
	str	r2, [r3]
.L313:
	.loc 2 5810 0
	ldr	r3, .L316
	ldr	r2, [r3, #12]
	ldr	r3, [sp, #12]
	cmp	r2, r3
	bgt	.L315
	.loc 2 5811 0
	ldr	r2, .L316
	ldr	r3, [sp, #12]
	str	r3, [r2, #12]
	.loc 2 5812 0
	ldr	r2, .L316
	ldr	r3, [sp, #8]
	str	r3, [r2, #4]
	.loc 2 5813 0
	ldr	r2, .L316
	ldr	r3, [sp, #4]
	str	r3, [r2, #8]
	.loc 2 5814 0
	ldr	r3, [sp]
	ldr	r2, .L316
	str	r3, [r2]
.L315:
	.loc 2 5816 0
	mov	r0, r0	@ nop
	add	sp, sp, #16
	.cfi_def_cfa_offset 0
	@ sp needed
	bx	lr
.L317:
	.align	2
.L316:
	.word	dc
	.word	SeekStarted
	.cfi_endproc
.LFE39:
	.size	TaskMainSonarSensorTask_blk6, .-TaskMainSonarSensorTask_blk6
	.align	2
	.global	TaskMainSonarSensorTask_blk7
	.type	TaskMainSonarSensorTask_blk7, %function
TaskMainSonarSensorTask_blk7:
.LFB40:
	.loc 2 5818 0
	.cfi_startproc
	@ Function supports interworking.
	@ args = 0, pretend = 0, frame = 16
	@ frame_needed = 0, uses_anonymous_args = 0
	@ link register save eliminated.
	sub	sp, sp, #16
	.cfi_def_cfa_offset 16
	.loc 2 5872 0
	ldr	r3, .L322
	ldr	r3, [r3, #12]
	cmp	r3, #20
	beq	.L319
	.loc 2 5873 0
	ldr	r3, .L322+4
	mov	r2, #0
	str	r2, [r3]
.L319:
	.loc 2 5875 0
	ldr	r3, .L322
	ldr	r2, [r3, #12]
	ldr	r3, [sp, #12]
	cmp	r2, r3
	bgt	.L321
	.loc 2 5876 0
	ldr	r2, .L322
	ldr	r3, [sp, #12]
	str	r3, [r2, #12]
	.loc 2 5877 0
	ldr	r2, .L322
	ldr	r3, [sp, #8]
	str	r3, [r2, #4]
	.loc 2 5878 0
	ldr	r2, .L322
	ldr	r3, [sp, #4]
	str	r3, [r2, #8]
	.loc 2 5879 0
	ldr	r3, [sp]
	ldr	r2, .L322
	str	r3, [r2]
.L321:
	.loc 2 5881 0
	mov	r0, r0	@ nop
	add	sp, sp, #16
	.cfi_def_cfa_offset 0
	@ sp needed
	bx	lr
.L323:
	.align	2
.L322:
	.word	dc
	.word	SeekStarted
	.cfi_endproc
.LFE40:
	.size	TaskMainSonarSensorTask_blk7, .-TaskMainSonarSensorTask_blk7
	.align	2
	.global	TaskMainSonarSensorTask_blk8
	.type	TaskMainSonarSensorTask_blk8, %function
TaskMainSonarSensorTask_blk8:
.LFB41:
	.loc 2 5883 0
	.cfi_startproc
	@ Function supports interworking.
	@ args = 0, pretend = 0, frame = 16
	@ frame_needed = 0, uses_anonymous_args = 0
	@ link register save eliminated.
	sub	sp, sp, #16
	.cfi_def_cfa_offset 16
	.loc 2 5937 0
	ldr	r3, .L328
	ldr	r3, [r3, #12]
	cmp	r3, #20
	beq	.L325
	.loc 2 5938 0
	ldr	r3, .L328+4
	mov	r2, #0
	str	r2, [r3]
.L325:
	.loc 2 5940 0
	ldr	r3, .L328
	ldr	r2, [r3, #12]
	ldr	r3, [sp, #12]
	cmp	r2, r3
	bgt	.L327
	.loc 2 5941 0
	ldr	r2, .L328
	ldr	r3, [sp, #12]
	str	r3, [r2, #12]
	.loc 2 5942 0
	ldr	r2, .L328
	ldr	r3, [sp, #8]
	str	r3, [r2, #4]
	.loc 2 5943 0
	ldr	r2, .L328
	ldr	r3, [sp, #4]
	str	r3, [r2, #8]
	.loc 2 5944 0
	ldr	r3, [sp]
	ldr	r2, .L328
	str	r3, [r2]
.L327:
	.loc 2 5946 0
	mov	r0, r0	@ nop
	add	sp, sp, #16
	.cfi_def_cfa_offset 0
	@ sp needed
	bx	lr
.L329:
	.align	2
.L328:
	.word	dc
	.word	SeekStarted
	.cfi_endproc
.LFE41:
	.size	TaskMainSonarSensorTask_blk8, .-TaskMainSonarSensorTask_blk8
	.align	2
	.global	TaskMainDisplayTask_blk
	.type	TaskMainDisplayTask_blk, %function
TaskMainDisplayTask_blk:
.LFB42:
	.loc 2 5948 0
	.cfi_startproc
	@ Function supports interworking.
	@ args = 0, pretend = 0, frame = 120
	@ frame_needed = 0, uses_anonymous_args = 0
	@ link register save eliminated.
	sub	sp, sp, #120
	.cfi_def_cfa_offset 120
	.loc 2 6040 0
	mov	r3, #0
	str	r3, [sp, #80]
	.loc 2 6041 0
	mov	r3, #0
	str	r3, [sp, #76]
	.loc 2 6042 0
	ldr	r2, .L403
	ldr	r3, [sp, #80]
	str	r3, [r2]
	.loc 2 6043 0
	ldr	r2, .L403+4
	ldr	r3, [sp, #76]
	str	r3, [r2]
	.loc 2 6044 0
	mov	r0, r0	@ nop
.L331:
	.loc 2 6046 0
	mov	r3, #5
	str	r3, [sp, #116]
	.loc 2 6047 0
	b	.L332
.L335:
	.loc 2 6048 0
	.syntax divided
@ 6048 "sumo.c" 1
	1:
        .section .wcet_annot
        .long 1b
        .long 1
        .long 5
                        .text
@ 0 "" 2
	.loc 2 6049 0
	.arm
	.syntax divided
	ldr	r3, [sp, #116]
	cmp	r3, #10
	beq	.L333
	.loc 2 6051 0
	ldr	r3, .L403
	ldr	r3, [r3]
	add	r3, r3, #1
	ldr	r2, .L403
	str	r3, [r2]
	b	.L334
.L333:
	.loc 2 6053 0
	ldr	r3, .L403
	mov	r2, #0
	str	r2, [r3]
	.loc 2 6054 0
	ldr	r3, .L403+4
	ldr	r3, [r3]
	add	r3, r3, #1
	ldr	r2, .L403+4
	str	r3, [r2]
.L334:
	.loc 2 6056 0
	ldr	r3, [sp, #116]
	add	r3, r3, #1
	str	r3, [sp, #116]
.L332:
	.loc 2 6047 0
	ldr	r3, [sp, #116]
	cmp	r3, #0
	bne	.L335
	.loc 2 6058 0
	mov	r0, r0	@ nop
.L336:
	.loc 2 6060 0
	ldr	r3, .L403+8
	ldr	r3, [r3, #12]
	cmp	r3, #20
	beq	.L338
	cmp	r3, #20
	bgt	.L339
	cmp	r3, #5
	beq	.L340
	b	.L337
.L339:
	cmp	r3, #30
	beq	.L341
	cmp	r3, #50
	beq	.L342
	b	.L337
.L340:
	.loc 2 6062 0
	mov	r3, #4
	str	r3, [sp, #112]
	.loc 2 6063 0
	b	.L343
.L346:
	.loc 2 6064 0
	.syntax divided
@ 6064 "sumo.c" 1
	1:
        .section .wcet_annot
        .long 1b
        .long 1
        .long 4
                        .text
@ 0 "" 2
	.loc 2 6065 0
	.arm
	.syntax divided
	ldr	r3, [sp, #112]
	cmp	r3, #10
	beq	.L344
	.loc 2 6067 0
	ldr	r3, .L403
	ldr	r3, [r3]
	add	r3, r3, #1
	ldr	r2, .L403
	str	r3, [r2]
	b	.L345
.L344:
	.loc 2 6069 0
	ldr	r3, .L403
	mov	r2, #0
	str	r2, [r3]
	.loc 2 6070 0
	ldr	r3, .L403+4
	ldr	r3, [r3]
	add	r3, r3, #1
	ldr	r2, .L403+4
	str	r3, [r2]
.L345:
	.loc 2 6072 0
	ldr	r3, [sp, #112]
	add	r3, r3, #1
	str	r3, [sp, #112]
.L343:
	.loc 2 6063 0
	ldr	r3, [sp, #112]
	cmp	r3, #0
	bne	.L346
	.loc 2 6074 0
	mov	r0, r0	@ nop
.L347:
	.loc 2 6076 0
	b	.L348
.L338:
	.loc 2 6078 0
	mov	r3, #4
	str	r3, [sp, #108]
	.loc 2 6079 0
	b	.L349
.L352:
	.loc 2 6080 0
	.syntax divided
@ 6080 "sumo.c" 1
	1:
        .section .wcet_annot
        .long 1b
        .long 1
        .long 4
                        .text
@ 0 "" 2
	.loc 2 6081 0
	.arm
	.syntax divided
	ldr	r3, [sp, #108]
	cmp	r3, #10
	beq	.L350
	.loc 2 6083 0
	ldr	r3, .L403
	ldr	r3, [r3]
	add	r3, r3, #1
	ldr	r2, .L403
	str	r3, [r2]
	b	.L351
.L350:
	.loc 2 6085 0
	ldr	r3, .L403
	mov	r2, #0
	str	r2, [r3]
	.loc 2 6086 0
	ldr	r3, .L403+4
	ldr	r3, [r3]
	add	r3, r3, #1
	ldr	r2, .L403+4
	str	r3, [r2]
.L351:
	.loc 2 6088 0
	ldr	r3, [sp, #108]
	add	r3, r3, #1
	str	r3, [sp, #108]
.L349:
	.loc 2 6079 0
	ldr	r3, [sp, #108]
	cmp	r3, #0
	bne	.L352
	.loc 2 6090 0
	mov	r0, r0	@ nop
.L353:
	.loc 2 6092 0
	b	.L348
.L341:
	.loc 2 6094 0
	mov	r3, #6
	str	r3, [sp, #104]
	.loc 2 6095 0
	b	.L354
.L357:
	.loc 2 6096 0
	.syntax divided
@ 6096 "sumo.c" 1
	1:
        .section .wcet_annot
        .long 1b
        .long 1
        .long 6
                        .text
@ 0 "" 2
	.loc 2 6097 0
	.arm
	.syntax divided
	ldr	r3, [sp, #104]
	cmp	r3, #10
	beq	.L355
	.loc 2 6099 0
	ldr	r3, .L403
	ldr	r3, [r3]
	add	r3, r3, #1
	ldr	r2, .L403
	str	r3, [r2]
	b	.L356
.L355:
	.loc 2 6101 0
	ldr	r3, .L403
	mov	r2, #0
	str	r2, [r3]
	.loc 2 6102 0
	ldr	r3, .L403+4
	ldr	r3, [r3]
	add	r3, r3, #1
	ldr	r2, .L403+4
	str	r3, [r2]
.L356:
	.loc 2 6104 0
	ldr	r3, [sp, #104]
	add	r3, r3, #1
	str	r3, [sp, #104]
.L354:
	.loc 2 6095 0
	ldr	r3, [sp, #104]
	cmp	r3, #0
	bne	.L357
	.loc 2 6106 0
	mov	r0, r0	@ nop
.L358:
	.loc 2 6108 0
	b	.L348
.L342:
	.loc 2 6110 0
	mov	r3, #5
	str	r3, [sp, #100]
	.loc 2 6111 0
	b	.L359
.L362:
	.loc 2 6112 0
	.syntax divided
@ 6112 "sumo.c" 1
	1:
        .section .wcet_annot
        .long 1b
        .long 1
        .long 5
                        .text
@ 0 "" 2
	.loc 2 6113 0
	.arm
	.syntax divided
	ldr	r3, [sp, #100]
	cmp	r3, #10
	beq	.L360
	.loc 2 6115 0
	ldr	r3, .L403
	ldr	r3, [r3]
	add	r3, r3, #1
	ldr	r2, .L403
	str	r3, [r2]
	b	.L361
.L360:
	.loc 2 6117 0
	ldr	r3, .L403
	mov	r2, #0
	str	r2, [r3]
	.loc 2 6118 0
	ldr	r3, .L403+4
	ldr	r3, [r3]
	add	r3, r3, #1
	ldr	r2, .L403+4
	str	r3, [r2]
.L361:
	.loc 2 6120 0
	ldr	r3, [sp, #100]
	add	r3, r3, #1
	str	r3, [sp, #100]
.L359:
	.loc 2 6111 0
	ldr	r3, [sp, #100]
	cmp	r3, #0
	bne	.L362
	.loc 2 6122 0
	mov	r0, r0	@ nop
.L363:
	.loc 2 6124 0
	b	.L348
.L337:
	.loc 2 6126 0
	mov	r3, #4
	str	r3, [sp, #96]
	.loc 2 6127 0
	b	.L364
.L367:
	.loc 2 6128 0
	.syntax divided
@ 6128 "sumo.c" 1
	1:
        .section .wcet_annot
        .long 1b
        .long 1
        .long 4
                        .text
@ 0 "" 2
	.loc 2 6129 0
	.arm
	.syntax divided
	ldr	r3, [sp, #96]
	cmp	r3, #10
	beq	.L365
	.loc 2 6131 0
	ldr	r3, .L403
	ldr	r3, [r3]
	add	r3, r3, #1
	ldr	r2, .L403
	str	r3, [r2]
	b	.L366
.L365:
	.loc 2 6133 0
	ldr	r3, .L403
	mov	r2, #0
	str	r2, [r3]
	.loc 2 6134 0
	ldr	r3, .L403+4
	ldr	r3, [r3]
	add	r3, r3, #1
	ldr	r2, .L403+4
	str	r3, [r2]
.L366:
	.loc 2 6136 0
	ldr	r3, [sp, #96]
	add	r3, r3, #1
	str	r3, [sp, #96]
.L364:
	.loc 2 6127 0
	ldr	r3, [sp, #96]
	cmp	r3, #0
	bne	.L367
	.loc 2 6138 0
	mov	r0, r0	@ nop
.L368:
	.loc 2 6141 0
	ldr	r3, .L403+8
	ldr	r3, [r3, #12]
	str	r3, [sp, #72]
	.loc 2 6142 0
	mov	r3, #3
	str	r3, [sp, #68]
	.loc 2 6144 0
	ldr	r3, [sp, #72]
	cmp	r3, #0
	bge	.L369
	.loc 2 6145 0
	ldr	r3, [sp, #72]
	rsb	r3, r3, #0
	str	r3, [sp, #64]
	.loc 2 6150 0
	b	.L399
.L369:
	.loc 2 6147 0
	ldr	r3, [sp, #72]
	str	r3, [sp, #64]
.L399:
	.loc 2 6150 0
	mov	r0, r0	@ nop
.L371:
	.loc 2 6154 0
	mov	r0, r0	@ nop
.L348:
	.loc 2 6156 0
	mov	r3, #0
	str	r3, [sp, #60]
	.loc 2 6157 0
	mov	r3, #1
	str	r3, [sp, #56]
	.loc 2 6158 0
	ldr	r2, .L403
	ldr	r3, [sp, #60]
	str	r3, [r2]
	.loc 2 6159 0
	ldr	r2, .L403+4
	ldr	r3, [sp, #56]
	str	r3, [r2]
	.loc 2 6160 0
	mov	r0, r0	@ nop
.L372:
	.loc 2 6162 0
	mov	r3, #10
	str	r3, [sp, #92]
	.loc 2 6163 0
	b	.L373
.L376:
	.loc 2 6164 0
	.syntax divided
@ 6164 "sumo.c" 1
	1:
        .section .wcet_annot
        .long 1b
        .long 1
        .long 10
                        .text
@ 0 "" 2
	.loc 2 6165 0
	.arm
	.syntax divided
	ldr	r3, [sp, #92]
	cmp	r3, #10
	beq	.L374
	.loc 2 6167 0
	ldr	r3, .L403
	ldr	r3, [r3]
	add	r3, r3, #1
	ldr	r2, .L403
	str	r3, [r2]
	b	.L375
.L374:
	.loc 2 6169 0
	ldr	r3, .L403
	mov	r2, #0
	str	r2, [r3]
	.loc 2 6170 0
	ldr	r3, .L403+4
	ldr	r3, [r3]
	add	r3, r3, #1
	ldr	r2, .L403+4
	str	r3, [r2]
.L375:
	.loc 2 6172 0
	ldr	r3, [sp, #92]
	add	r3, r3, #1
	str	r3, [sp, #92]
.L373:
	.loc 2 6163 0
	ldr	r3, [sp, #92]
	cmp	r3, #0
	bne	.L376
	.loc 2 6174 0
	mov	r0, r0	@ nop
.L377:
	.loc 2 6176 0
	mov	r3, #0
	str	r3, [sp, #52]
	.loc 2 6177 0
	mov	r3, #2
	str	r3, [sp, #48]
	.loc 2 6178 0
	ldr	r2, .L403
	ldr	r3, [sp, #52]
	str	r3, [r2]
	.loc 2 6179 0
	ldr	r2, .L403+4
	ldr	r3, [sp, #48]
	str	r3, [r2]
	.loc 2 6180 0
	mov	r0, r0	@ nop
.L378:
	.loc 2 6183 0
	ldr	r3, .L403+8
	ldr	r3, [r3, #4]
	str	r3, [sp, #44]
	.loc 2 6184 0
	mov	r3, #4
	str	r3, [sp, #40]
	.loc 2 6186 0
	ldr	r3, [sp, #44]
	cmp	r3, #0
	bge	.L379
	.loc 2 6187 0
	ldr	r3, [sp, #44]
	rsb	r3, r3, #0
	str	r3, [sp, #36]
	.loc 2 6192 0
	b	.L400
.L379:
	.loc 2 6189 0
	ldr	r3, [sp, #44]
	str	r3, [sp, #36]
.L400:
	.loc 2 6192 0
	mov	r0, r0	@ nop
.L381:
	.loc 2 6195 0
	mov	r3, #1
	str	r3, [sp, #88]
	.loc 2 6197 0
	b	.L382
.L385:
	.loc 2 6198 0
	.syntax divided
@ 6198 "sumo.c" 1
	1:
        .section .wcet_annot
        .long 1b
        .long 1
        .long 1
                        .text
@ 0 "" 2
	.loc 2 6199 0
	.arm
	.syntax divided
	ldr	r3, [sp, #88]
	cmp	r3, #10
	beq	.L383
	.loc 2 6201 0
	ldr	r3, .L403
	ldr	r3, [r3]
	add	r3, r3, #1
	ldr	r2, .L403
	str	r3, [r2]
	b	.L384
.L383:
	.loc 2 6203 0
	ldr	r3, .L403
	mov	r2, #0
	str	r2, [r3]
	.loc 2 6204 0
	ldr	r3, .L403+4
	ldr	r3, [r3]
	add	r3, r3, #1
	ldr	r2, .L403+4
	str	r3, [r2]
.L384:
	.loc 2 6206 0
	ldr	r3, [sp, #88]
	add	r3, r3, #1
	str	r3, [sp, #88]
.L382:
	.loc 2 6197 0
	ldr	r3, [sp, #88]
	cmp	r3, #0
	bne	.L385
	.loc 2 6208 0
	mov	r0, r0	@ nop
.L386:
	.loc 2 6211 0
	ldr	r3, .L403+8
	ldr	r3, [r3, #8]
	str	r3, [sp, #32]
	.loc 2 6212 0
	mov	r3, #4
	str	r3, [sp, #28]
	.loc 2 6214 0
	ldr	r3, [sp, #32]
	cmp	r3, #0
	bge	.L387
	.loc 2 6215 0
	ldr	r3, [sp, #32]
	rsb	r3, r3, #0
	str	r3, [sp, #24]
	.loc 2 6220 0
	b	.L401
.L387:
	.loc 2 6217 0
	ldr	r3, [sp, #32]
	str	r3, [sp, #24]
.L401:
	.loc 2 6220 0
	mov	r0, r0	@ nop
.L389:
	.loc 2 6223 0
	mov	r3, #0
	str	r3, [sp, #20]
	.loc 2 6224 0
	mov	r3, #3
	str	r3, [sp, #16]
	.loc 2 6225 0
	ldr	r2, .L403
	ldr	r3, [sp, #20]
	str	r3, [r2]
	.loc 2 6226 0
	ldr	r2, .L403+4
	ldr	r3, [sp, #16]
	str	r3, [r2]
	.loc 2 6228 0
	mov	r0, r0	@ nop
.L390:
	.loc 2 6230 0
	mov	r3, #9
	str	r3, [sp, #84]
	.loc 2 6231 0
	b	.L391
.L394:
	.loc 2 6232 0
	.syntax divided
@ 6232 "sumo.c" 1
	1:
        .section .wcet_annot
        .long 1b
        .long 1
        .long 9
                        .text
@ 0 "" 2
	.loc 2 6233 0
	.arm
	.syntax divided
	ldr	r3, [sp, #84]
	cmp	r3, #10
	beq	.L392
	.loc 2 6235 0
	ldr	r3, .L403
	ldr	r3, [r3]
	add	r3, r3, #1
	ldr	r2, .L403
	str	r3, [r2]
	b	.L393
.L392:
	.loc 2 6237 0
	ldr	r3, .L403
	mov	r2, #0
	str	r2, [r3]
	.loc 2 6238 0
	ldr	r3, .L403+4
	ldr	r3, [r3]
	add	r3, r3, #1
	ldr	r2, .L403+4
	str	r3, [r2]
.L393:
	.loc 2 6240 0
	ldr	r3, [sp, #84]
	add	r3, r3, #1
	str	r3, [sp, #84]
.L391:
	.loc 2 6231 0
	ldr	r3, [sp, #84]
	cmp	r3, #0
	bne	.L394
	.loc 2 6242 0
	mov	r0, r0	@ nop
.L395:
	.loc 2 6245 0
	ldr	r3, .L403+8
	ldr	r3, [r3]
	str	r3, [sp, #12]
	.loc 2 6246 0
	mov	r3, #0
	str	r3, [sp, #8]
	.loc 2 6248 0
	ldr	r3, [sp, #12]
	cmp	r3, #0
	bge	.L396
	.loc 2 6249 0
	ldr	r3, [sp, #12]
	rsb	r3, r3, #0
	str	r3, [sp, #4]
	.loc 2 6254 0
	b	.L402
.L396:
	.loc 2 6251 0
	ldr	r3, [sp, #12]
	str	r3, [sp, #4]
.L402:
	.loc 2 6254 0
	mov	r0, r0	@ nop
.L398:
	.loc 2 6258 0
	mov	r0, r0	@ nop
	add	sp, sp, #120
	.cfi_def_cfa_offset 0
	@ sp needed
	bx	lr
.L404:
	.align	2
.L403:
	.word	display_x
	.word	display_y
	.word	dc
	.cfi_endproc
.LFE42:
	.size	TaskMainDisplayTask_blk, .-TaskMainDisplayTask_blk
	.align	2
	.global	main
	.type	main, %function
main:
.LFB43:
	.loc 2 6268 0
	.cfi_startproc
	@ Function supports interworking.
	@ args = 0, pretend = 0, frame = 0
	@ frame_needed = 0, uses_anonymous_args = 0
	stmfd	sp!, {r4, lr}
	.cfi_def_cfa_offset 8
	.cfi_offset 4, -8
	.cfi_offset 14, -4
	.loc 2 6287 0
	bl	TaskMainSonarSensorTask_blk8
	.loc 2 6290 0
	mov	r0, r0	@ nop
	ldmfd	sp!, {r4, lr}
	.cfi_restore 14
	.cfi_restore 4
	.cfi_def_cfa_offset 0
	bx	lr
	.cfi_endproc
.LFE43:
	.size	main, .-main
.Letext0: