	.cpu arm7tdmi
	.fpu softvfp
	.eabi_attribute 20, 1
	.eabi_attribute 21, 1
	.eabi_attribute 23, 3
	.eabi_attribute 24, 1
	.eabi_attribute 25, 1
	.eabi_attribute 26, 1
	.eabi_attribute 30, 6
	.eabi_attribute 34, 0
	.eabi_attribute 18, 4
	.arm
	.syntax divided
	.file	"objectfollower.c"
	.text
.Ltext0:
	.cfi_sections	.debug_frame
	.align	2
	.global	__aeabi_idiv
	.type	__aeabi_idiv, %function
__aeabi_idiv:
.LFB0:
	.file 1 "../ARMlib.h"
	.loc 1 29 0
	.cfi_startproc
	@ Function supports interworking.
	@ args = 0, pretend = 0, frame = 0
	@ frame_needed = 0, uses_anonymous_args = 0
	@ link register save eliminated.
	.loc 1 29 0
	mov	r0, r0	@ nop
	bx	lr
	.cfi_endproc
.LFE0:
	.size	__aeabi_idiv, .-__aeabi_idiv
	.align	2
	.global	__aeabi_i2d
	.type	__aeabi_i2d, %function
__aeabi_i2d:
.LFB1:
	.loc 1 30 0
	.cfi_startproc
	@ Function supports interworking.
	@ args = 0, pretend = 0, frame = 0
	@ frame_needed = 0, uses_anonymous_args = 0
	@ link register save eliminated.
	.loc 1 30 0
	mov	r0, r0	@ nop
	bx	lr
	.cfi_endproc
.LFE1:
	.size	__aeabi_i2d, .-__aeabi_i2d
	.align	2
	.global	__aeabi_uidivmod
	.type	__aeabi_uidivmod, %function
__aeabi_uidivmod:
.LFB2:
	.loc 1 31 0
	.cfi_startproc
	@ Function supports interworking.
	@ args = 0, pretend = 0, frame = 0
	@ frame_needed = 0, uses_anonymous_args = 0
	@ link register save eliminated.
	.loc 1 31 0
	mov	r0, r0	@ nop
	bx	lr
	.cfi_endproc
.LFE2:
	.size	__aeabi_uidivmod, .-__aeabi_uidivmod
	.align	2
	.global	__aeabi_fcmpge
	.type	__aeabi_fcmpge, %function
__aeabi_fcmpge:
.LFB3:
	.loc 1 32 0
	.cfi_startproc
	@ Function supports interworking.
	@ args = 0, pretend = 0, frame = 0
	@ frame_needed = 0, uses_anonymous_args = 0
	@ link register save eliminated.
	.loc 1 32 0
	mov	r0, r0	@ nop
	bx	lr
	.cfi_endproc
.LFE3:
	.size	__aeabi_fcmpge, .-__aeabi_fcmpge
	.align	2
	.global	__aeabi_i2f
	.type	__aeabi_i2f, %function
__aeabi_i2f:
.LFB4:
	.loc 1 33 0
	.cfi_startproc
	@ Function supports interworking.
	@ args = 0, pretend = 0, frame = 0
	@ frame_needed = 0, uses_anonymous_args = 0
	@ link register save eliminated.
	.loc 1 33 0
	mov	r0, r0	@ nop
	bx	lr
	.cfi_endproc
.LFE4:
	.size	__aeabi_i2f, .-__aeabi_i2f
	.align	2
	.global	__aeabi_ddiv
	.type	__aeabi_ddiv, %function
__aeabi_ddiv:
.LFB5:
	.loc 1 37 0
	.cfi_startproc
	@ Function supports interworking.
	@ args = 0, pretend = 0, frame = 0
	@ frame_needed = 0, uses_anonymous_args = 0
	@ link register save eliminated.
	.loc 1 37 0
	mov	r0, r0	@ nop
	bx	lr
	.cfi_endproc
.LFE5:
	.size	__aeabi_ddiv, .-__aeabi_ddiv
	.align	2
	.global	__aeabi_dsub
	.type	__aeabi_dsub, %function
__aeabi_dsub:
.LFB6:
	.loc 1 38 0
	.cfi_startproc
	@ Function supports interworking.
	@ args = 0, pretend = 0, frame = 0
	@ frame_needed = 0, uses_anonymous_args = 0
	@ link register save eliminated.
	.loc 1 38 0
	mov	r0, r0	@ nop
	bx	lr
	.cfi_endproc
.LFE6:
	.size	__aeabi_dsub, .-__aeabi_dsub
	.align	2
	.global	__aeabi_dmul
	.type	__aeabi_dmul, %function
__aeabi_dmul:
.LFB7:
	.loc 1 39 0
	.cfi_startproc
	@ Function supports interworking.
	@ args = 0, pretend = 0, frame = 0
	@ frame_needed = 0, uses_anonymous_args = 0
	@ link register save eliminated.
	.loc 1 39 0
	mov	r0, r0	@ nop
	bx	lr
	.cfi_endproc
.LFE7:
	.size	__aeabi_dmul, .-__aeabi_dmul
	.align	2
	.global	__aeabi_dcmpge
	.type	__aeabi_dcmpge, %function
__aeabi_dcmpge:
.LFB8:
	.loc 1 40 0
	.cfi_startproc
	@ Function supports interworking.
	@ args = 0, pretend = 0, frame = 0
	@ frame_needed = 0, uses_anonymous_args = 0
	@ link register save eliminated.
	.loc 1 40 0
	mov	r0, r0	@ nop
	bx	lr
	.cfi_endproc
.LFE8:
	.size	__aeabi_dcmpge, .-__aeabi_dcmpge
	.align	2
	.global	__aeabi_dcmpeq
	.type	__aeabi_dcmpeq, %function
__aeabi_dcmpeq:
.LFB9:
	.loc 1 41 0
	.cfi_startproc
	@ Function supports interworking.
	@ args = 0, pretend = 0, frame = 0
	@ frame_needed = 0, uses_anonymous_args = 0
	@ link register save eliminated.
	.loc 1 41 0
	mov	r0, r0	@ nop
	bx	lr
	.cfi_endproc
.LFE9:
	.size	__aeabi_dcmpeq, .-__aeabi_dcmpeq
	.align	2
	.global	__aeabi_dcmpgt
	.type	__aeabi_dcmpgt, %function
__aeabi_dcmpgt:
.LFB10:
	.loc 1 42 0
	.cfi_startproc
	@ Function supports interworking.
	@ args = 0, pretend = 0, frame = 0
	@ frame_needed = 0, uses_anonymous_args = 0
	@ link register save eliminated.
	.loc 1 42 0
	mov	r0, r0	@ nop
	bx	lr
	.cfi_endproc
.LFE10:
	.size	__aeabi_dcmpgt, .-__aeabi_dcmpgt
	.align	2
	.global	__aeabi_dcmple
	.type	__aeabi_dcmple, %function
__aeabi_dcmple:
.LFB11:
	.loc 1 43 0
	.cfi_startproc
	@ Function supports interworking.
	@ args = 0, pretend = 0, frame = 0
	@ frame_needed = 0, uses_anonymous_args = 0
	@ link register save eliminated.
	.loc 1 43 0
	mov	r0, r0	@ nop
	bx	lr
	.cfi_endproc
.LFE11:
	.size	__aeabi_dcmple, .-__aeabi_dcmple
	.align	2
	.global	__aeabi_d2f
	.type	__aeabi_d2f, %function
__aeabi_d2f:
.LFB12:
	.loc 1 44 0
	.cfi_startproc
	@ Function supports interworking.
	@ args = 0, pretend = 0, frame = 0
	@ frame_needed = 0, uses_anonymous_args = 0
	@ link register save eliminated.
	.loc 1 44 0
	mov	r0, r0	@ nop
	bx	lr
	.cfi_endproc
.LFE12:
	.size	__aeabi_d2f, .-__aeabi_d2f
	.align	2
	.global	__aeabi_dadd
	.type	__aeabi_dadd, %function
__aeabi_dadd:
.LFB13:
	.loc 1 45 0
	.cfi_startproc
	@ Function supports interworking.
	@ args = 0, pretend = 0, frame = 0
	@ frame_needed = 0, uses_anonymous_args = 0
	@ link register save eliminated.
	.loc 1 45 0
	mov	r0, r0	@ nop
	bx	lr
	.cfi_endproc
.LFE13:
	.size	__aeabi_dadd, .-__aeabi_dadd
	.align	2
	.global	__aeabi_d2iz
	.type	__aeabi_d2iz, %function
__aeabi_d2iz:
.LFB14:
	.loc 1 46 0
	.cfi_startproc
	@ Function supports interworking.
	@ args = 0, pretend = 0, frame = 0
	@ frame_needed = 0, uses_anonymous_args = 0
	@ link register save eliminated.
	.loc 1 46 0
	mov	r0, r0	@ nop
	bx	lr
	.cfi_endproc
.LFE14:
	.size	__aeabi_d2iz, .-__aeabi_d2iz
	.align	2
	.global	__aeabi_fcmplt
	.type	__aeabi_fcmplt, %function
__aeabi_fcmplt:
.LFB15:
	.loc 1 49 0
	.cfi_startproc
	@ Function supports interworking.
	@ args = 0, pretend = 0, frame = 0
	@ frame_needed = 0, uses_anonymous_args = 0
	@ link register save eliminated.
	.loc 1 49 0
	mov	r0, r0	@ nop
	bx	lr
	.cfi_endproc
.LFE15:
	.size	__aeabi_fcmplt, .-__aeabi_fcmplt
	.align	2
	.global	__aeabi_fcmpgt
	.type	__aeabi_fcmpgt, %function
__aeabi_fcmpgt:
.LFB16:
	.loc 1 50 0
	.cfi_startproc
	@ Function supports interworking.
	@ args = 0, pretend = 0, frame = 0
	@ frame_needed = 0, uses_anonymous_args = 0
	@ link register save eliminated.
	.loc 1 50 0
	mov	r0, r0	@ nop
	bx	lr
	.cfi_endproc
.LFE16:
	.size	__aeabi_fcmpgt, .-__aeabi_fcmpgt
	.align	2
	.global	__aeabi_fdiv
	.type	__aeabi_fdiv, %function
__aeabi_fdiv:
.LFB17:
	.loc 1 51 0
	.cfi_startproc
	@ Function supports interworking.
	@ args = 0, pretend = 0, frame = 0
	@ frame_needed = 0, uses_anonymous_args = 0
	@ link register save eliminated.
	.loc 1 51 0
	mov	r0, r0	@ nop
	bx	lr
	.cfi_endproc
.LFE17:
	.size	__aeabi_fdiv, .-__aeabi_fdiv
	.align	2
	.global	__aeabi_fcmpeq
	.type	__aeabi_fcmpeq, %function
__aeabi_fcmpeq:
.LFB18:
	.loc 1 52 0
	.cfi_startproc
	@ Function supports interworking.
	@ args = 0, pretend = 0, frame = 0
	@ frame_needed = 0, uses_anonymous_args = 0
	@ link register save eliminated.
	.loc 1 52 0
	mov	r0, r0	@ nop
	bx	lr
	.cfi_endproc
.LFE18:
	.size	__aeabi_fcmpeq, .-__aeabi_fcmpeq
	.align	2
	.global	__aeabi_fmul
	.type	__aeabi_fmul, %function
__aeabi_fmul:
.LFB19:
	.loc 1 53 0
	.cfi_startproc
	@ Function supports interworking.
	@ args = 0, pretend = 0, frame = 0
	@ frame_needed = 0, uses_anonymous_args = 0
	@ link register save eliminated.
	.loc 1 53 0
	mov	r0, r0	@ nop
	bx	lr
	.cfi_endproc
.LFE19:
	.size	__aeabi_fmul, .-__aeabi_fmul
	.align	2
	.global	__aeabi_fsub
	.type	__aeabi_fsub, %function
__aeabi_fsub:
.LFB20:
	.loc 1 54 0
	.cfi_startproc
	@ Function supports interworking.
	@ args = 0, pretend = 0, frame = 0
	@ frame_needed = 0, uses_anonymous_args = 0
	@ link register save eliminated.
	.loc 1 54 0
	mov	r0, r0	@ nop
	bx	lr
	.cfi_endproc
.LFE20:
	.size	__aeabi_fsub, .-__aeabi_fsub
	.align	2
	.global	__aeabi_f2d
	.type	__aeabi_f2d, %function
__aeabi_f2d:
.LFB21:
	.loc 1 55 0
	.cfi_startproc
	@ Function supports interworking.
	@ args = 0, pretend = 0, frame = 0
	@ frame_needed = 0, uses_anonymous_args = 0
	@ link register save eliminated.
	.loc 1 55 0
	mov	r0, r0	@ nop
	bx	lr
	.cfi_endproc
.LFE21:
	.size	__aeabi_f2d, .-__aeabi_f2d
	.align	2
	.global	__aeabi_fadd
	.type	__aeabi_fadd, %function
__aeabi_fadd:
.LFB22:
	.loc 1 56 0
	.cfi_startproc
	@ Function supports interworking.
	@ args = 0, pretend = 0, frame = 0
	@ frame_needed = 0, uses_anonymous_args = 0
	@ link register save eliminated.
	.loc 1 56 0
	mov	r0, r0	@ nop
	bx	lr
	.cfi_endproc
.LFE22:
	.size	__aeabi_fadd, .-__aeabi_fadd
	.align	2
	.global	__aeabi_ui2
	.type	__aeabi_ui2, %function
__aeabi_ui2:
.LFB23:
	.loc 1 59 0
	.cfi_startproc
	@ Function supports interworking.
	@ args = 0, pretend = 0, frame = 0
	@ frame_needed = 0, uses_anonymous_args = 0
	@ link register save eliminated.
	.loc 1 59 0
	mov	r0, r0	@ nop
	bx	lr
	.cfi_endproc
.LFE23:
	.size	__aeabi_ui2, .-__aeabi_ui2
	.align	2
	.global	__aeabi_ui2d
	.type	__aeabi_ui2d, %function
__aeabi_ui2d:
.LFB24:
	.loc 1 60 0
	.cfi_startproc
	@ Function supports interworking.
	@ args = 0, pretend = 0, frame = 0
	@ frame_needed = 0, uses_anonymous_args = 0
	@ link register save eliminated.
	.loc 1 60 0
	mov	r0, r0	@ nop
	bx	lr
	.cfi_endproc
.LFE24:
	.size	__aeabi_ui2d, .-__aeabi_ui2d
	.align	2
	.global	__aeabi_dcmpun
	.type	__aeabi_dcmpun, %function
__aeabi_dcmpun:
.LFB25:
	.loc 1 62 0
	.cfi_startproc
	@ Function supports interworking.
	@ args = 0, pretend = 0, frame = 0
	@ frame_needed = 0, uses_anonymous_args = 0
	@ link register save eliminated.
	.loc 1 62 0
	mov	r0, r0	@ nop
	bx	lr
	.cfi_endproc
.LFE25:
	.size	__aeabi_dcmpun, .-__aeabi_dcmpun
	.align	2
	.global	__aeabi_dcmplt
	.type	__aeabi_dcmplt, %function
__aeabi_dcmplt:
.LFB26:
	.loc 1 63 0
	.cfi_startproc
	@ Function supports interworking.
	@ args = 0, pretend = 0, frame = 0
	@ frame_needed = 0, uses_anonymous_args = 0
	@ link register save eliminated.
	.loc 1 63 0
	mov	r0, r0	@ nop
	bx	lr
	.cfi_endproc
.LFE26:
	.size	__aeabi_dcmplt, .-__aeabi_dcmplt
	.global	display_tick
	.bss
	.align	2
	.type	display_tick, %object
	.size	display_tick, 4
display_tick:
	.space	4
	.global	display_auto_update
	.data
	.align	2
	.type	display_auto_update, %object
	.size	display_auto_update, 4
display_auto_update:
	.word	1
	.global	avr_brainwash_string
	.section	.rodata
	.align	2
	.type	avr_brainwash_string, %object
	.size	avr_brainwash_string, 48
avr_brainwash_string:
	.byte	-52
	.byte	76
	.byte	101
	.byte	116
	.byte	39
	.byte	115
	.byte	32
	.byte	115
	.byte	97
	.byte	109
	.byte	98
	.byte	97
	.byte	32
	.byte	110
	.byte	120
	.byte	116
	.byte	32
	.byte	97
	.byte	114
	.byte	109
	.byte	32
	.byte	105
	.byte	110
	.byte	32
	.byte	97
	.byte	114
	.byte	109
	.byte	44
	.byte	32
	.byte	40
	.byte	99
	.byte	41
	.byte	76
	.byte	69
	.byte	71
	.byte	79
	.byte	32
	.byte	83
	.byte	121
	.byte	115
	.byte	116
	.byte	101
	.byte	109
	.byte	32
	.byte	65
	.byte	47
	.byte	83
	.byte	0
	.bss
	.align	2
io_to_avr:
	.space	8
	.align	2
data_to_avr:
	.space	9
	.align	2
data_from_avr:
	.space	26
	.align	2
io_from_avr:
	.space	4
	.align	2
from_buf:
	.space	4
	.align	1
prev_buttons:
	.space	2
	.align	1
button_state:
	.space	2
	.align	1
debounce_state:
	.space	2
	.align	1
debounce_cnt:
	.space	2
	.align	2
nxt_avr_stats:
	.space	20
	.align	2
update_count:
	.space	4
	.align	2
link_state:
	.space	4
	.global	displayM
	.align	2
	.type	displayM, %object
	.size	displayM, 4
displayM:
	.space	4
	.global	dirty
	.type	dirty, %object
	.size	dirty, 1
dirty:
	.space	1
	.global	page
	.type	page, %object
	.size	page, 1
page:
	.space	1
	.global	dataM
	.align	2
	.type	dataM, %object
	.size	dataM, 4
dataM:
	.space	4
	.global	mode
	.data
	.type	mode, %object
	.size	mode, 1
mode:
	.byte	-1
	.bss
	.align	2
display:
	.space	4
	.align	2
display_array:
	.space	904
	.data
	.align	2
	.type	display_buffer, %object
	.size	display_buffer, 4
display_buffer:
	.word	display_array+4
	.section	.rodata
	.align	2
	.type	font, %object
	.size	font, 640
font:
	.byte	62
	.byte	54
	.byte	42
	.byte	54
	.byte	62
	.byte	62
	.byte	85
	.byte	97
	.byte	85
	.byte	62
	.byte	62
	.byte	107
	.byte	95
	.byte	107
	.byte	62
	.byte	12
	.byte	30
	.byte	60
	.byte	30
	.byte	12
	.byte	8
	.byte	28
	.byte	62
	.byte	28
	.byte	8
	.byte	24
	.byte	94
	.byte	126
	.byte	94
	.byte	24
	.byte	24
	.byte	92
	.byte	126
	.byte	92
	.byte	24
	.byte	62
	.byte	54
	.byte	42
	.byte	54
	.byte	62
	.byte	62
	.byte	54
	.byte	42
	.byte	54
	.byte	62
	.byte	62
	.byte	54
	.byte	42
	.byte	54
	.byte	62
	.byte	62
	.byte	54
	.byte	42
	.byte	54
	.byte	62
	.byte	62
	.byte	54
	.byte	42
	.byte	54
	.byte	62
	.byte	62
	.byte	54
	.byte	42
	.byte	54
	.byte	62
	.byte	62
	.byte	54
	.byte	42
	.byte	54
	.byte	62
	.byte	62
	.byte	54
	.byte	42
	.byte	54
	.byte	62
	.byte	62
	.byte	54
	.byte	42
	.byte	54
	.byte	62
	.byte	62
	.byte	54
	.byte	42
	.byte	54
	.byte	62
	.byte	62
	.byte	54
	.byte	42
	.byte	54
	.byte	62
	.byte	62
	.byte	54
	.byte	42
	.byte	54
	.byte	62
	.byte	62
	.byte	54
	.byte	42
	.byte	54
	.byte	62
	.byte	62
	.byte	54
	.byte	42
	.byte	54
	.byte	62
	.byte	62
	.byte	54
	.byte	42
	.byte	54
	.byte	62
	.byte	62
	.byte	54
	.byte	42
	.byte	54
	.byte	62
	.byte	62
	.byte	54
	.byte	42
	.byte	54
	.byte	62
	.byte	62
	.byte	54
	.byte	42
	.byte	54
	.byte	62
	.byte	62
	.byte	54
	.byte	42
	.byte	54
	.byte	62
	.byte	62
	.byte	54
	.byte	42
	.byte	54
	.byte	62
	.byte	62
	.byte	54
	.byte	42
	.byte	54
	.byte	62
	.byte	62
	.byte	54
	.byte	42
	.byte	54
	.byte	62
	.byte	62
	.byte	54
	.byte	42
	.byte	54
	.byte	62
	.byte	62
	.byte	54
	.byte	42
	.byte	54
	.byte	62
	.byte	62
	.byte	54
	.byte	42
	.byte	54
	.byte	62
	.byte	0
	.byte	0
	.byte	0
	.byte	0
	.byte	0
	.byte	0
	.byte	0
	.byte	95
	.byte	0
	.byte	0
	.byte	0
	.byte	7
	.byte	0
	.byte	7
	.byte	0
	.byte	20
	.byte	62
	.byte	20
	.byte	62
	.byte	20
	.byte	4
	.byte	42
	.byte	127
	.byte	42
	.byte	16
	.byte	38
	.byte	22
	.byte	8
	.byte	52
	.byte	50
	.byte	54
	.byte	73
	.byte	89
	.byte	38
	.byte	80
	.byte	0
	.byte	0
	.byte	7
	.byte	0
	.byte	0
	.byte	0
	.byte	28
	.byte	34
	.byte	65
	.byte	0
	.byte	0
	.byte	65
	.byte	34
	.byte	28
	.byte	0
	.byte	42
	.byte	28
	.byte	127
	.byte	28
	.byte	42
	.byte	8
	.byte	8
	.byte	62
	.byte	8
	.byte	8
	.byte	0
	.byte	80
	.byte	48
	.byte	0
	.byte	0
	.byte	8
	.byte	8
	.byte	8
	.byte	8
	.byte	8
	.byte	0
	.byte	96
	.byte	96
	.byte	0
	.byte	0
	.byte	32
	.byte	16
	.byte	8
	.byte	4
	.byte	2
	.byte	62
	.byte	81
	.byte	73
	.byte	69
	.byte	62
	.byte	0
	.byte	66
	.byte	127
	.byte	64
	.byte	0
	.byte	66
	.byte	97
	.byte	81
	.byte	73
	.byte	70
	.byte	33
	.byte	65
	.byte	69
	.byte	75
	.byte	49
	.byte	24
	.byte	20
	.byte	18
	.byte	127
	.byte	16
	.byte	39
	.byte	69
	.byte	69
	.byte	69
	.byte	57
	.byte	60
	.byte	74
	.byte	73
	.byte	73
	.byte	48
	.byte	1
	.byte	1
	.byte	121
	.byte	5
	.byte	3
	.byte	54
	.byte	73
	.byte	73
	.byte	73
	.byte	54
	.byte	6
	.byte	73
	.byte	73
	.byte	41
	.byte	30
	.byte	0
	.byte	54
	.byte	54
	.byte	0
	.byte	0
	.byte	0
	.byte	86
	.byte	54
	.byte	0
	.byte	0
	.byte	8
	.byte	20
	.byte	34
	.byte	65
	.byte	0
	.byte	20
	.byte	20
	.byte	20
	.byte	20
	.byte	20
	.byte	65
	.byte	34
	.byte	20
	.byte	8
	.byte	0
	.byte	2
	.byte	1
	.byte	89
	.byte	5
	.byte	2
	.byte	28
	.byte	42
	.byte	54
	.byte	62
	.byte	12
	.byte	126
	.byte	9
	.byte	9
	.byte	9
	.byte	126
	.byte	127
	.byte	73
	.byte	73
	.byte	73
	.byte	62
	.byte	62
	.byte	65
	.byte	65
	.byte	65
	.byte	34
	.byte	127
	.byte	65
	.byte	65
	.byte	34
	.byte	28
	.byte	127
	.byte	73
	.byte	73
	.byte	73
	.byte	65
	.byte	127
	.byte	9
	.byte	9
	.byte	9
	.byte	1
	.byte	62
	.byte	65
	.byte	65
	.byte	73
	.byte	58
	.byte	127
	.byte	8
	.byte	8
	.byte	8
	.byte	127
	.byte	0
	.byte	65
	.byte	127
	.byte	65
	.byte	0
	.byte	32
	.byte	64
	.byte	65
	.byte	63
	.byte	1
	.byte	127
	.byte	8
	.byte	20
	.byte	34
	.byte	65
	.byte	127
	.byte	64
	.byte	64
	.byte	64
	.byte	64
	.byte	127
	.byte	2
	.byte	4
	.byte	2
	.byte	127
	.byte	127
	.byte	4
	.byte	8
	.byte	16
	.byte	127
	.byte	62
	.byte	65
	.byte	65
	.byte	65
	.byte	62
	.byte	127
	.byte	9
	.byte	9
	.byte	9
	.byte	6
	.byte	62
	.byte	65
	.byte	81
	.byte	33
	.byte	94
	.byte	127
	.byte	9
	.byte	25
	.byte	41
	.byte	70
	.byte	38
	.byte	73
	.byte	73
	.byte	73
	.byte	50
	.byte	1
	.byte	1
	.byte	127
	.byte	1
	.byte	1
	.byte	63
	.byte	64
	.byte	64
	.byte	64
	.byte	63
	.byte	31
	.byte	32
	.byte	64
	.byte	32
	.byte	31
	.byte	127
	.byte	32
	.byte	24
	.byte	32
	.byte	127
	.byte	99
	.byte	20
	.byte	8
	.byte	20
	.byte	99
	.byte	3
	.byte	4
	.byte	120
	.byte	4
	.byte	3
	.byte	97
	.byte	81
	.byte	73
	.byte	69
	.byte	67
	.byte	0
	.byte	127
	.byte	65
	.byte	65
	.byte	0
	.byte	2
	.byte	4
	.byte	8
	.byte	16
	.byte	32
	.byte	0
	.byte	65
	.byte	65
	.byte	127
	.byte	0
	.byte	4
	.byte	2
	.byte	1
	.byte	2
	.byte	4
	.byte	64
	.byte	64
	.byte	64
	.byte	64
	.byte	64
	.byte	0
	.byte	0
	.byte	7
	.byte	0
	.byte	0
	.byte	32
	.byte	84
	.byte	84
	.byte	84
	.byte	120
	.byte	127
	.byte	72
	.byte	68
	.byte	68
	.byte	56
	.byte	48
	.byte	72
	.byte	72
	.byte	72
	.byte	32
	.byte	56
	.byte	68
	.byte	68
	.byte	72
	.byte	127
	.byte	56
	.byte	84
	.byte	84
	.byte	84
	.byte	24
	.byte	8
	.byte	126
	.byte	9
	.byte	9
	.byte	2
	.byte	12
	.byte	82
	.byte	82
	.byte	82
	.byte	62
	.byte	127
	.byte	8
	.byte	4
	.byte	4
	.byte	120
	.byte	0
	.byte	68
	.byte	125
	.byte	64
	.byte	0
	.byte	32
	.byte	64
	.byte	64
	.byte	61
	.byte	0
	.byte	127
	.byte	16
	.byte	40
	.byte	68
	.byte	0
	.byte	0
	.byte	65
	.byte	127
	.byte	64
	.byte	0
	.byte	124
	.byte	4
	.byte	24
	.byte	4
	.byte	120
	.byte	124
	.byte	8
	.byte	4
	.byte	4
	.byte	120
	.byte	56
	.byte	68
	.byte	68
	.byte	68
	.byte	56
	.byte	-4
	.byte	20
	.byte	20
	.byte	20
	.byte	8
	.byte	8
	.byte	20
	.byte	20
	.byte	24
	.byte	124
	.byte	124
	.byte	8
	.byte	4
	.byte	4
	.byte	8
	.byte	72
	.byte	84
	.byte	84
	.byte	84
	.byte	32
	.byte	4
	.byte	63
	.byte	68
	.byte	64
	.byte	32
	.byte	60
	.byte	64
	.byte	64
	.byte	32
	.byte	124
	.byte	28
	.byte	32
	.byte	64
	.byte	32
	.byte	28
	.byte	60
	.byte	64
	.byte	56
	.byte	64
	.byte	60
	.byte	68
	.byte	40
	.byte	16
	.byte	40
	.byte	68
	.byte	12
	.byte	80
	.byte	80
	.byte	80
	.byte	60
	.byte	68
	.byte	100
	.byte	84
	.byte	76
	.byte	68
	.byte	0
	.byte	8
	.byte	54
	.byte	65
	.byte	0
	.byte	0
	.byte	0
	.byte	127
	.byte	0
	.byte	0
	.byte	0
	.byte	65
	.byte	54
	.byte	8
	.byte	0
	.byte	0
	.byte	7
	.byte	0
	.byte	7
	.byte	0
	.byte	62
	.byte	54
	.byte	42
	.byte	54
	.byte	62
	.comm	display_x,4,4
	.comm	display_y,4,4
	.bss
	.align	2
motor:
	.space	48
	.align	2
nxt_motor_initialised:
	.space	4
	.align	2
interrupts_this_period:
	.space	4
	.align	2
sizeLCD:
	.space	4
	.align	2
areaLCD:
	.space	4
	.align	2
xLCD:
	.space	4
	.align	2
speedLCD:
	.space	4
	.align	2
devspeedLCD:
	.space	4
	.align	2
diradjLCD:
	.space	4
	.align	2
lmotLCD:
	.space	4
	.align	2
rmotLCD:
	.space	4
	.global	objData
	.align	2
	.type	objData, %object
	.size	objData, 8
objData:
	.space	8
	.data
	.type	tracking_enabled, %object
	.size	tracking_enabled, 1
tracking_enabled:
	.byte	-1
	.text
	.align	2
	.global	TaskMainAcquisitionTask
	.type	TaskMainAcquisitionTask, %function
TaskMainAcquisitionTask:
.LFB27:
	.file 2 "objectfollower.c"
	.loc 2 470 0
	.cfi_startproc
	@ Function supports interworking.
	@ args = 0, pretend = 0, frame = 24
	@ frame_needed = 0, uses_anonymous_args = 0
	@ link register save eliminated.
	sub	sp, sp, #24
	.cfi_def_cfa_offset 24
	.loc 2 478 0
	ldr	r3, .L33
	ldrsb	r3, [r3]
	cmp	r3, #0
	beq	.L29
	.loc 2 479 0
	mov	r3, #1
	str	r3, [sp, #20]
	.loc 2 480 0
	ldr	r3, [sp, #20]
	mov	r3, r3, asl #24
	mov	r2, r3, asr #24
	ldr	r3, .L33
	strb	r2, [r3]
	.loc 2 498 0
	b	.L32
.L29:
	.loc 2 483 0
	mov	r3, #1
	str	r3, [sp, #16]
	.loc 2 484 0
	ldr	r3, [sp, #16]
	cmp	r3, #0
	blt	.L32
	.loc 2 485 0
	mov	r3, #1
	str	r3, [sp, #12]
	.loc 2 486 0
	mov	r3, #1
	str	r3, [sp, #12]
	.loc 2 487 0
	mov	r3, #1
	str	r3, [sp, #8]
	.loc 2 488 0
	mov	r3, #1
	str	r3, [sp, #4]
	.loc 2 490 0
	ldr	r2, .L33+4
	ldr	r3, [sp, #4]
	str	r3, [r2]
	.loc 2 491 0
	ldr	r2, .L33+4
	ldr	r3, [sp, #8]
	str	r3, [r2, #4]
	.loc 2 493 0
	ldr	r2, .L33+8
	ldr	r3, [sp, #8]
	str	r3, [r2]
	.loc 2 494 0
	ldr	r2, .L33+12
	ldr	r3, [sp, #12]
	str	r3, [r2]
	.loc 2 495 0
	ldr	r2, .L33+16
	ldr	r3, [sp, #4]
	str	r3, [r2]
	.loc 2 498 0
	mov	r0, r0	@ nop
.L32:
	mov	r0, r0	@ nop
	.loc 2 500 0
	add	sp, sp, #24
	.cfi_def_cfa_offset 0
	@ sp needed
	bx	lr
.L34:
	.align	2
.L33:
	.word	tracking_enabled
	.word	objData
	.word	sizeLCD
	.word	areaLCD
	.word	xLCD
	.cfi_endproc
.LFE27:
	.size	TaskMainAcquisitionTask, .-TaskMainAcquisitionTask
	.bss
	.align	2
integral:
	.space	4
	.global	prevError
	.align	2
	.type	prevError, %object
	.size	prevError, 4
prevError:
	.space	4
	.align	2
integral___0:
	.space	4
	.align	2
prevError___0:
	.space	4
	.text
	.align	2
	.global	TaskMainControlTask
	.type	TaskMainControlTask, %function
TaskMainControlTask:
.LFB28:
	.loc 2 507 0
	.cfi_startproc
	@ Function supports interworking.
	@ args = 0, pretend = 0, frame = 144
	@ frame_needed = 0, uses_anonymous_args = 0
	@ link register save eliminated.
	sub	sp, sp, #144
	.cfi_def_cfa_offset 144
	.loc 2 544 0
	ldr	r2, .L66
	add	r3, sp, #8
	ldmia	r2, {r0, r1}
	stmia	r3, {r0, r1}
	.loc 2 546 0
	mov	r3, sp
	add	r2, sp, #8
	ldmia	r2, {r0, r1}
	stmia	r3, {r0, r1}
	.loc 2 547 0
	mov	r0, r0	@ nop
.L36:
	.loc 2 549 0
	add	r3, sp, #16
	mov	r2, sp
	ldmia	r2, {r0, r1}
	stmia	r3, {r0, r1}
	.loc 2 550 0
	ldr	r3, [sp, #20]
	str	r3, [sp, #120]
	.loc 2 551 0
	ldr	r3, [sp, #16]
	str	r3, [sp, #116]
	.loc 2 552 0
	ldr	r3, [sp, #120]
	cmp	r3, #0
	ble	.L37
	.loc 2 553 0
	ldr	r3, [sp, #116]
	cmp	r3, #0
	ble	.L38
	.loc 2 554 0
	ldr	r3, [sp, #120]
	str	r3, [sp, #112]
	.loc 2 555 0
	ldr	r3, [sp, #112]
	rsb	r3, r3, #50
	str	r3, [sp, #108]
	.loc 2 556 0
	ldr	r3, .L66+4
	ldr	r2, [r3]
	ldr	r3, [sp, #108]
	add	r3, r2, r3
	ldr	r2, .L66+4
	str	r3, [r2]
	.loc 2 557 0
	ldr	r3, .L66+8
	ldr	r3, [r3]
	ldr	r2, [sp, #108]
	rsb	r3, r3, r2
	str	r3, [sp, #104]
	.loc 2 558 0
	mov	r3, #1
	str	r3, [sp, #100]
	.loc 2 559 0
	ldr	r2, .L66+8
	ldr	r3, [sp, #108]
	str	r3, [r2]
	.loc 2 560 0
	ldr	r3, [sp, #100]
	str	r3, [sp, #96]
	.loc 2 561 0
	mov	r0, r0	@ nop
.L39:
	.loc 2 563 0
	ldr	r3, [sp, #96]
	str	r3, [sp, #92]
	.loc 2 564 0
	ldr	r3, [sp, #92]
	str	r3, [sp, #88]
	.loc 2 565 0
	ldr	r2, .L66+12
	ldr	r3, [sp, #88]
	str	r3, [r2]
	.loc 2 566 0
	ldr	r3, [sp, #88]
	add	r3, r3, #50
	str	r3, [sp, #140]
	.loc 2 567 0
	ldr	r3, [sp, #140]
	cmp	r3, #100
	ble	.L41
	.loc 2 568 0
	mov	r3, #100
	str	r3, [sp, #140]
.L41:
	.loc 2 572 0
	ldr	r3, [sp, #116]
	str	r3, [sp, #84]
	.loc 2 573 0
	ldr	r3, [sp, #84]
	rsb	r3, r3, #83
	str	r3, [sp, #80]
	.loc 2 574 0
	ldr	r3, .L66+16
	ldr	r2, [r3]
	ldr	r3, [sp, #80]
	add	r3, r2, r3
	ldr	r2, .L66+16
	str	r3, [r2]
	.loc 2 575 0
	ldr	r3, .L66+20
	ldr	r3, [r3]
	ldr	r2, [sp, #80]
	rsb	r3, r3, r2
	str	r3, [sp, #76]
	.loc 2 576 0
	mov	r3, #1
	str	r3, [sp, #72]
	.loc 2 577 0
	ldr	r2, .L66+20
	ldr	r3, [sp, #80]
	str	r3, [r2]
	.loc 2 578 0
	ldr	r3, [sp, #72]
	str	r3, [sp, #68]
	.loc 2 579 0
	mov	r0, r0	@ nop
.L42:
	.loc 2 581 0
	ldr	r3, [sp, #68]
	str	r3, [sp, #64]
	.loc 2 582 0
	ldr	r2, .L66+24
	ldr	r3, [sp, #140]
	str	r3, [r2]
	.loc 2 583 0
	ldr	r2, .L66+28
	ldr	r3, [sp, #64]
	str	r3, [r2]
	.loc 2 584 0
	ldr	r2, [sp, #140]
	ldr	r3, [sp, #64]
	rsb	r3, r3, r2
	str	r3, [sp, #136]
	.loc 2 585 0
	ldr	r3, [sp, #136]
	cmp	r3, #100
	ble	.L44
	.loc 2 586 0
	mov	r3, #100
	str	r3, [sp, #136]
.L44:
	.loc 2 590 0
	ldr	r2, [sp, #140]
	ldr	r3, [sp, #64]
	add	r3, r2, r3
	str	r3, [sp, #132]
	.loc 2 591 0
	ldr	r3, [sp, #132]
	cmp	r3, #100
	ble	.L48
	.loc 2 592 0
	mov	r3, #100
	str	r3, [sp, #132]
	b	.L48
.L38:
	.loc 2 597 0
	mov	r3, #65
	str	r3, [sp, #132]
	.loc 2 598 0
	mvn	r3, #64
	str	r3, [sp, #136]
	.loc 2 599 0
	ldr	r3, .L66+24
	mov	r2, #0
	str	r2, [r3]
	.loc 2 600 0
	ldr	r3, .L66+28
	mov	r2, #0
	str	r2, [r3]
	.loc 2 601 0
	ldr	r3, .L66+12
	mov	r2, #0
	str	r2, [r3]
	b	.L48
.L37:
	.loc 2 604 0
	mov	r3, #65
	str	r3, [sp, #132]
	.loc 2 605 0
	mvn	r3, #64
	str	r3, [sp, #136]
	.loc 2 606 0
	ldr	r3, .L66+24
	mov	r2, #0
	str	r2, [r3]
	.loc 2 607 0
	ldr	r3, .L66+28
	mov	r2, #0
	str	r2, [r3]
	.loc 2 608 0
	ldr	r3, .L66+12
	mov	r2, #0
	str	r2, [r3]
.L48:
	.loc 2 610 0
	ldr	r2, .L66+32
	ldr	r3, [sp, #136]
	str	r3, [r2]
	.loc 2 611 0
	ldr	r2, .L66+36
	ldr	r3, [sp, #132]
	str	r3, [r2]
	.loc 2 612 0
	mov	r3, #1
	str	r3, [sp, #60]
	.loc 2 613 0
	ldr	r3, [sp, #136]
	str	r3, [sp, #128]
	.loc 2 614 0
	mov	r3, #0
	str	r3, [sp, #56]
	.loc 2 615 0
	ldr	r3, [sp, #60]
	cmp	r3, #2
	bhi	.L62
	.loc 2 616 0
	ldr	r3, [sp, #128]
	cmp	r3, #100
	ble	.L50
	.loc 2 617 0
	mov	r3, #100
	str	r3, [sp, #128]
.L50:
	.loc 2 619 0
	ldr	r3, [sp, #128]
	cmn	r3, #100
	bge	.L51
	.loc 2 620 0
	mvn	r3, #99
	str	r3, [sp, #128]
.L51:
	.loc 2 623 0
	ldr	r2, .L66+40
	ldr	r3, [sp, #60]
	mov	r3, r3, asl #4
	add	r3, r2, r3
	ldr	r2, [sp, #128]
	str	r2, [r3, #8]
	.loc 2 624 0
	ldr	r3, [sp, #60]
	str	r3, [sp, #52]
	.loc 2 625 0
	ldr	r3, [sp, #128]
	str	r3, [sp, #48]
	.loc 2 626 0
	ldr	r3, [sp, #56]
	str	r3, [sp, #44]
	.loc 2 628 0
	ldr	r3, [sp, #52]
	cmp	r3, #2
	bhi	.L63
	.loc 2 629 0
	ldr	r3, [sp, #48]
	mov	r3, r3, asl #24
	mov	r1, r3, asr #24
	ldr	r2, .L66+44
	ldr	r3, [sp, #52]
	add	r3, r2, r3
	add	r3, r3, #2
	mov	r2, r1
	strb	r2, [r3]
	.loc 2 630 0
	ldr	r3, [sp, #44]
	cmp	r3, #0
	beq	.L53
	.loc 2 631 0
	ldr	r3, .L66+44
	ldrb	r3, [r3, #6]	@ zero_extendqisi2
	mov	r3, r3, asl #24
	mov	r2, r3, asr #24
	mov	r1, #1
	ldr	r3, [sp, #52]
	mov	r3, r1, asl r3
	mov	r3, r3, asl #24
	mov	r3, r3, asr #24
	orr	r3, r2, r3
	mov	r3, r3, asl #24
	mov	r3, r3, asr #24
	and	r2, r3, #255
	ldr	r3, .L66+44
	strb	r2, [r3, #6]
	.loc 2 636 0
	b	.L63
.L53:
	.loc 2 633 0
	ldr	r3, .L66+44
	ldrb	r3, [r3, #6]	@ zero_extendqisi2
	mov	r3, r3, asl #24
	mov	r2, r3, asr #24
	mov	r1, #1
	ldr	r3, [sp, #52]
	mov	r3, r1, asl r3
	mov	r3, r3, asl #24
	mov	r3, r3, asr #24
	mvn	r3, r3
	mov	r3, r3, asl #24
	mov	r3, r3, asr #24
	and	r3, r3, r2
	mov	r3, r3, asl #24
	mov	r3, r3, asr #24
	and	r2, r3, #255
	ldr	r3, .L66+44
	strb	r2, [r3, #6]
.L63:
	.loc 2 636 0
	mov	r0, r0	@ nop
.L49:
.L62:
	.loc 2 641 0
	mov	r0, r0	@ nop
.L54:
	.loc 2 643 0
	mov	r3, #0
	str	r3, [sp, #40]
	.loc 2 644 0
	ldr	r3, [sp, #132]
	str	r3, [sp, #124]
	.loc 2 645 0
	mov	r3, #0
	str	r3, [sp, #36]
	.loc 2 646 0
	ldr	r3, [sp, #40]
	cmp	r3, #2
	bhi	.L64
	.loc 2 647 0
	ldr	r3, [sp, #124]
	cmp	r3, #100
	ble	.L56
	.loc 2 648 0
	mov	r3, #100
	str	r3, [sp, #124]
.L56:
	.loc 2 650 0
	ldr	r3, [sp, #124]
	cmn	r3, #100
	bge	.L57
	.loc 2 651 0
	mvn	r3, #99
	str	r3, [sp, #124]
.L57:
	.loc 2 654 0
	ldr	r2, .L66+40
	ldr	r3, [sp, #40]
	mov	r3, r3, asl #4
	add	r3, r2, r3
	ldr	r2, [sp, #124]
	str	r2, [r3, #8]
	.loc 2 655 0
	ldr	r3, [sp, #40]
	str	r3, [sp, #32]
	.loc 2 656 0
	ldr	r3, [sp, #124]
	str	r3, [sp, #28]
	.loc 2 657 0
	ldr	r3, [sp, #36]
	str	r3, [sp, #24]
	.loc 2 659 0
	ldr	r3, [sp, #32]
	cmp	r3, #2
	bhi	.L65
	.loc 2 660 0
	ldr	r3, [sp, #28]
	mov	r3, r3, asl #24
	mov	r1, r3, asr #24
	ldr	r2, .L66+44
	ldr	r3, [sp, #32]
	add	r3, r2, r3
	add	r3, r3, #2
	mov	r2, r1
	strb	r2, [r3]
	.loc 2 661 0
	ldr	r3, [sp, #24]
	cmp	r3, #0
	beq	.L59
	.loc 2 662 0
	ldr	r3, .L66+44
	ldrb	r3, [r3, #6]	@ zero_extendqisi2
	mov	r3, r3, asl #24
	mov	r2, r3, asr #24
	mov	r1, #1
	ldr	r3, [sp, #32]
	mov	r3, r1, asl r3
	mov	r3, r3, asl #24
	mov	r3, r3, asr #24
	orr	r3, r2, r3
	mov	r3, r3, asl #24
	mov	r3, r3, asr #24
	and	r2, r3, #255
	ldr	r3, .L66+44
	strb	r2, [r3, #6]
	.loc 2 667 0
	b	.L65
.L59:
	.loc 2 664 0
	ldr	r3, .L66+44
	ldrb	r3, [r3, #6]	@ zero_extendqisi2
	mov	r3, r3, asl #24
	mov	r2, r3, asr #24
	mov	r1, #1
	ldr	r3, [sp, #32]
	mov	r3, r1, asl r3
	mov	r3, r3, asl #24
	mov	r3, r3, asr #24
	mvn	r3, r3
	mov	r3, r3, asl #24
	mov	r3, r3, asr #24
	and	r3, r3, r2
	mov	r3, r3, asl #24
	mov	r3, r3, asr #24
	and	r2, r3, #255
	ldr	r3, .L66+44
	strb	r2, [r3, #6]
.L65:
	.loc 2 667 0
	mov	r0, r0	@ nop
.L55:
.L64:
	.loc 2 672 0
	mov	r0, r0	@ nop
.L60:
	.loc 2 675 0
	mov	r0, r0	@ nop
	.loc 2 677 0
	add	sp, sp, #144
	.cfi_def_cfa_offset 0
	@ sp needed
	bx	lr
.L67:
	.align	2
.L66:
	.word	objData
	.word	integral
	.word	prevError
	.word	devspeedLCD
	.word	integral___0
	.word	prevError___0
	.word	speedLCD
	.word	diradjLCD
	.word	lmotLCD
	.word	rmotLCD
	.word	motor
	.word	io_to_avr
	.cfi_endproc
.LFE28:
	.size	TaskMainControlTask, .-TaskMainControlTask
	.align	2
	.global	TaskMainDisplayTask
	.type	TaskMainDisplayTask, %function
TaskMainDisplayTask:
.LFB29:
	.loc 2 679 0
	.cfi_startproc
	@ Function supports interworking.
	@ args = 0, pretend = 0, frame = 608
	@ frame_needed = 0, uses_anonymous_args = 0
	@ link register save eliminated.
	sub	sp, sp, #608
	.cfi_def_cfa_offset 608
	.loc 2 880 0
	mov	r3, #0
	strb	r3, [sp, #351]
	.loc 2 881 0
	ldrb	r3, [sp, #351]
	strb	r3, [sp, #350]
	.loc 2 882 0
	ldrb	r3, [sp, #351]
	add	r3, r3, #1
	strb	r3, [sp, #351]
	.loc 2 883 0
	mov	r3, #0
	str	r3, [sp, #344]
	.loc 2 884 0
	ldrb	r3, [sp, #350]	@ zero_extendqisi2
	str	r3, [sp, #340]
	.loc 2 885 0
	ldr	r2, .L329+32
	ldr	r3, [sp, #344]
	str	r3, [r2]
	.loc 2 886 0
	ldr	r2, .L329+36
	ldr	r3, [sp, #340]
	str	r3, [r2]
	.loc 2 887 0
	mov	r0, r0	@ nop
.L69:
	.loc 2 890 0
	mov	r3, #5
	str	r3, [sp, #604]
	.loc 2 891 0
	b	.L70
.L77:
	.loc 2 892 0
	.syntax divided
@ 892 "objectfollower.c" 1
	1:
        .section .wcet_annot
        .long 1b
        .long 1
        .long 5
                        .text
@ 0 "" 2
	.loc 2 893 0
	.arm
	.syntax divided
	ldr	r3, [sp, #604]
	cmp	r3, #10
	beq	.L71
	.loc 2 894 0
	mov	r3, #1
	str	r3, [sp, #336]
	.loc 2 895 0
	ldr	r3, [sp, #336]
	cmp	r3, #0
	blt	.L313
	.loc 2 896 0
	ldr	r3, [sp, #336]
	cmp	r3, #127
	bgt	.L313
	.loc 2 897 0
	ldr	r3, .L329+32
	ldr	r3, [r3]
	cmp	r3, #0
	blt	.L313
	.loc 2 898 0
	ldr	r3, .L329+32
	ldr	r3, [r3]
	cmp	r3, #15
	bgt	.L313
	.loc 2 899 0
	ldr	r3, .L329+36
	ldr	r3, [r3]
	cmp	r3, #0
	blt	.L313
	.loc 2 900 0
	ldr	r3, .L329+36
	ldr	r3, [r3]
	cmp	r3, #7
	bgt	.L313
	.loc 2 903 0
	mov	r3, #0
	str	r3, [sp, #412]
	.loc 2 904 0
	b	.L73
.L74:
	.loc 2 905 0
	.syntax divided
@ 905 "objectfollower.c" 1
	1:
        .section .wcet_annot
        .long 1b
        .long 1
        .long 5
                        .text
@ 0 "" 2
	.loc 2 909 0
	.arm
	.syntax divided
	ldr	r3, [sp, #412]
	add	r3, r3, #1
	str	r3, [sp, #412]
.L73:
	.loc 2 904 0
	ldr	r3, [sp, #412]
	cmp	r3, #4
	ble	.L74
.L313:
	.loc 2 917 0
	mov	r0, r0	@ nop
.L75:
	.loc 2 919 0
	ldr	r3, .L329+32
	ldr	r3, [r3]
	add	r3, r3, #1
	ldr	r2, .L329+32
	str	r3, [r2]
	b	.L76
.L71:
	.loc 2 921 0
	ldr	r3, .L329+32
	mov	r2, #0
	str	r2, [r3]
	.loc 2 922 0
	ldr	r3, .L329+36
	ldr	r3, [r3]
	add	r3, r3, #1
	ldr	r2, .L329+36
	str	r3, [r2]
.L76:
	.loc 2 924 0
	ldr	r3, [sp, #604]
	add	r3, r3, #1
	str	r3, [sp, #604]
.L70:
	.loc 2 891 0
	ldr	r3, [sp, #604]
	cmp	r3, #4
	ble	.L77
	.loc 2 926 0
	mov	r0, r0	@ nop
.L78:
	.loc 2 928 0
	ldr	r3, .L329
	ldr	r3, [r3]
	str	r3, [sp, #332]
	.loc 2 929 0
	mov	r3, #4
	str	r3, [sp, #328]
	.loc 2 930 0
	ldr	r3, [sp, #332]
	cmp	r3, #0
	bge	.L79
	.loc 2 931 0
	ldr	r3, [sp, #332]
	rsb	r3, r3, #0
	str	r3, [sp, #572]
	b	.L80
.L79:
	.loc 2 933 0
	ldr	r3, [sp, #332]
	str	r3, [sp, #572]
.L80:
	.loc 2 935 0
	ldr	r3, [sp, #572]
	str	r3, [sp, #540]
	.loc 2 936 0
	ldr	r3, [sp, #328]
	str	r3, [sp, #536]
	.loc 2 937 0
	ldr	r3, [sp, #332]
	mov	r3, r3, lsr #31
	and	r3, r3, #255
	str	r3, [sp, #324]
	.loc 2 939 0
	mov	r3, #0
	str	r3, [sp, #532]
	.loc 2 941 0
	ldr	r3, [sp, #536]
	cmp	r3, #11
	bls	.L82
	.loc 2 942 0
	mov	r3, #11
	str	r3, [sp, #536]
	.loc 2 944 0
	b	.L82
.L83:
	.loc 2 945 0
	.syntax divided
@ 945 "objectfollower.c" 1
	1:
        .section .wcet_annot
        .long 1b
        .long 1
        .long 15
                        .text
@ 0 "" 2
	.loc 2 947 0
	.arm
	.syntax divided
	ldr	r3, [sp, #532]
	add	r3, r3, #1
	str	r3, [sp, #532]
	.loc 2 949 0
	mov	r3, #1
	str	r3, [sp, #540]
.L82:
	.loc 2 944 0
	ldr	r3, [sp, #540]
	cmp	r3, #0
	bne	.L83
	.loc 2 951 0
	ldr	r3, [sp, #532]
	cmp	r3, #0
	bne	.L84
	.loc 2 953 0
	ldr	r3, [sp, #532]
	add	r3, r3, #1
	str	r3, [sp, #532]
.L84:
	.loc 2 956 0
	ldr	r3, [sp, #324]
	cmp	r3, #0
	beq	.L86
	.loc 2 958 0
	ldr	r3, [sp, #532]
	add	r3, r3, #1
	str	r3, [sp, #532]
	.loc 2 961 0
	b	.L86
.L87:
	.loc 2 962 0
	.syntax divided
@ 962 "objectfollower.c" 1
	1:
        .section .wcet_annot
        .long 1b
        .long 1
        .long 10
                        .text
@ 0 "" 2
	.loc 2 964 0
	.arm
	.syntax divided
	ldr	r3, [sp, #532]
	add	r3, r3, #1
	str	r3, [sp, #532]
.L86:
	.loc 2 961 0
	ldr	r2, [sp, #532]
	ldr	r3, [sp, #536]
	cmp	r2, r3
	bcc	.L87
	.loc 2 967 0
	mov	r3, #1
	str	r3, [sp, #528]
	.loc 2 968 0
	b	.L88
.L95:
	.loc 2 969 0
	.syntax divided
@ 969 "objectfollower.c" 1
	1:
        .section .wcet_annot
        .long 1b
        .long 1
        .long 10
                        .text
@ 0 "" 2
	.loc 2 970 0
	.arm
	.syntax divided
	ldr	r3, [sp, #528]
	cmp	r3, #10
	beq	.L89
	.loc 2 971 0
	mov	r3, #1
	str	r3, [sp, #320]
	.loc 2 972 0
	ldr	r3, [sp, #320]
	cmp	r3, #0
	blt	.L314
	.loc 2 973 0
	ldr	r3, [sp, #320]
	cmp	r3, #127
	bgt	.L314
	.loc 2 974 0
	ldr	r3, .L329+32
	ldr	r3, [r3]
	cmp	r3, #0
	blt	.L314
	.loc 2 975 0
	ldr	r3, .L329+32
	ldr	r3, [r3]
	cmp	r3, #15
	bgt	.L314
	.loc 2 976 0
	ldr	r3, .L329+36
	ldr	r3, [r3]
	cmp	r3, #0
	blt	.L314
	.loc 2 977 0
	ldr	r3, .L329+36
	ldr	r3, [r3]
	cmp	r3, #7
	bgt	.L314
	.loc 2 980 0
	mov	r3, #0
	str	r3, [sp, #408]
	.loc 2 981 0
	b	.L91
.L92:
	.loc 2 982 0
	.syntax divided
@ 982 "objectfollower.c" 1
	1:
        .section .wcet_annot
        .long 1b
        .long 1
        .long 5
                        .text
@ 0 "" 2
	.loc 2 986 0
	.arm
	.syntax divided
	ldr	r3, [sp, #408]
	add	r3, r3, #1
	str	r3, [sp, #408]
.L91:
	.loc 2 981 0
	ldr	r3, [sp, #408]
	cmp	r3, #4
	ble	.L92
.L314:
	.loc 2 994 0
	mov	r0, r0	@ nop
.L93:
	.loc 2 996 0
	ldr	r3, .L329+32
	ldr	r3, [r3]
	add	r3, r3, #1
	ldr	r2, .L329+32
	str	r3, [r2]
	b	.L94
.L89:
	.loc 2 998 0
	ldr	r3, .L329+32
	mov	r2, #0
	str	r2, [r3]
	.loc 2 999 0
	ldr	r3, .L329+36
	ldr	r3, [r3]
	add	r3, r3, #1
	ldr	r2, .L329+36
	str	r3, [r2]
.L94:
	.loc 2 1001 0
	ldr	r3, [sp, #528]
	add	r3, r3, #1
	str	r3, [sp, #528]
.L88:
	.loc 2 968 0
	ldr	r3, [sp, #528]
	cmp	r3, #9
	ble	.L95
	.loc 2 1003 0
	mov	r0, r0	@ nop
	.loc 2 1005 0
	mov	r0, r0	@ nop
	.loc 2 1007 0
	mov	r0, r0	@ nop
.L96:
.L97:
.L98:
	.loc 2 1009 0
	ldrb	r3, [sp, #351]
	strb	r3, [sp, #319]
	.loc 2 1010 0
	ldrb	r3, [sp, #351]
	add	r3, r3, #1
	strb	r3, [sp, #351]
	.loc 2 1011 0
	mov	r3, #0
	str	r3, [sp, #312]
	.loc 2 1012 0
	ldrb	r3, [sp, #319]	@ zero_extendqisi2
	str	r3, [sp, #308]
	.loc 2 1013 0
	ldr	r2, .L329+32
	ldr	r3, [sp, #312]
	str	r3, [r2]
	.loc 2 1014 0
	ldr	r2, .L329+36
	ldr	r3, [sp, #308]
	str	r3, [r2]
	.loc 2 1015 0
	mov	r0, r0	@ nop
.L99:
	.loc 2 1018 0
	mov	r3, #5
	str	r3, [sp, #600]
	.loc 2 1019 0
	b	.L100
.L107:
	.loc 2 1020 0
	.syntax divided
@ 1020 "objectfollower.c" 1
	1:
        .section .wcet_annot
        .long 1b
        .long 1
        .long 5
                        .text
@ 0 "" 2
	.loc 2 1021 0
	.arm
	.syntax divided
	ldr	r3, [sp, #600]
	cmp	r3, #10
	beq	.L101
	.loc 2 1022 0
	mov	r3, #1
	str	r3, [sp, #304]
	.loc 2 1023 0
	ldr	r3, [sp, #304]
	cmp	r3, #0
	blt	.L315
	.loc 2 1024 0
	ldr	r3, [sp, #304]
	cmp	r3, #127
	bgt	.L315
	.loc 2 1025 0
	ldr	r3, .L329+32
	ldr	r3, [r3]
	cmp	r3, #0
	blt	.L315
	.loc 2 1026 0
	ldr	r3, .L329+32
	ldr	r3, [r3]
	cmp	r3, #15
	bgt	.L315
	.loc 2 1027 0
	ldr	r3, .L329+36
	ldr	r3, [r3]
	cmp	r3, #0
	blt	.L315
	.loc 2 1028 0
	ldr	r3, .L329+36
	ldr	r3, [r3]
	cmp	r3, #7
	bgt	.L315
	.loc 2 1031 0
	mov	r3, #0
	str	r3, [sp, #404]
	.loc 2 1032 0
	b	.L103
.L104:
	.loc 2 1033 0
	.syntax divided
@ 1033 "objectfollower.c" 1
	1:
        .section .wcet_annot
        .long 1b
        .long 1
        .long 5
                        .text
@ 0 "" 2
	.loc 2 1037 0
	.arm
	.syntax divided
	ldr	r3, [sp, #404]
	add	r3, r3, #1
	str	r3, [sp, #404]
.L103:
	.loc 2 1032 0
	ldr	r3, [sp, #404]
	cmp	r3, #4
	ble	.L104
.L315:
	.loc 2 1045 0
	mov	r0, r0	@ nop
.L105:
	.loc 2 1047 0
	ldr	r3, .L329+32
	ldr	r3, [r3]
	add	r3, r3, #1
	ldr	r2, .L329+32
	str	r3, [r2]
	b	.L106
.L101:
	.loc 2 1049 0
	ldr	r3, .L329+32
	mov	r2, #0
	str	r2, [r3]
	.loc 2 1050 0
	ldr	r3, .L329+36
	ldr	r3, [r3]
	add	r3, r3, #1
	ldr	r2, .L329+36
	str	r3, [r2]
.L106:
	.loc 2 1052 0
	ldr	r3, [sp, #600]
	add	r3, r3, #1
	str	r3, [sp, #600]
.L100:
	.loc 2 1019 0
	ldr	r3, [sp, #600]
	cmp	r3, #0
	bne	.L107
	.loc 2 1054 0
	mov	r0, r0	@ nop
.L108:
	.loc 2 1056 0
	ldr	r3, .L329+4
	ldr	r3, [r3]
	str	r3, [sp, #300]
	.loc 2 1057 0
	mov	r3, #5
	str	r3, [sp, #296]
	.loc 2 1058 0
	ldr	r3, [sp, #300]
	cmp	r3, #0
	bge	.L109
	.loc 2 1059 0
	ldr	r3, [sp, #300]
	rsb	r3, r3, #0
	str	r3, [sp, #568]
	b	.L110
.L109:
	.loc 2 1061 0
	ldr	r3, [sp, #300]
	str	r3, [sp, #568]
.L110:
	.loc 2 1063 0
	ldr	r3, [sp, #568]
	str	r3, [sp, #524]
	.loc 2 1064 0
	ldr	r3, [sp, #296]
	str	r3, [sp, #520]
	.loc 2 1065 0
	ldr	r3, [sp, #300]
	mov	r3, r3, lsr #31
	and	r3, r3, #255
	str	r3, [sp, #292]
	.loc 2 1067 0
	mov	r3, #0
	str	r3, [sp, #516]
	.loc 2 1069 0
	ldr	r3, [sp, #520]
	cmp	r3, #11
	bls	.L112
	.loc 2 1070 0
	mov	r3, #11
	str	r3, [sp, #520]
	.loc 2 1072 0
	b	.L112
.L113:
	.loc 2 1073 0
	.syntax divided
@ 1073 "objectfollower.c" 1
	1:
        .section .wcet_annot
        .long 1b
        .long 1
        .long 11
                        .text
@ 0 "" 2
	.loc 2 1075 0
	.arm
	.syntax divided
	ldr	r3, [sp, #516]
	add	r3, r3, #1
	str	r3, [sp, #516]
	.loc 2 1077 0
	mov	r3, #1
	str	r3, [sp, #524]
.L112:
	.loc 2 1072 0
	ldr	r3, [sp, #524]
	cmp	r3, #0
	bne	.L113
	.loc 2 1079 0
	ldr	r3, [sp, #516]
	cmp	r3, #0
	bne	.L114
	.loc 2 1081 0
	ldr	r3, [sp, #516]
	add	r3, r3, #1
	str	r3, [sp, #516]
.L114:
	.loc 2 1084 0
	ldr	r3, [sp, #292]
	cmp	r3, #0
	beq	.L116
	.loc 2 1086 0
	ldr	r3, [sp, #516]
	add	r3, r3, #1
	str	r3, [sp, #516]
	.loc 2 1089 0
	b	.L116
.L117:
	.loc 2 1090 0
	.syntax divided
@ 1090 "objectfollower.c" 1
	1:
        .section .wcet_annot
        .long 1b
        .long 1
        .long 6
                        .text
@ 0 "" 2
	.loc 2 1092 0
	.arm
	.syntax divided
	ldr	r3, [sp, #516]
	add	r3, r3, #1
	str	r3, [sp, #516]
.L116:
	.loc 2 1089 0
	ldr	r2, [sp, #516]
	ldr	r3, [sp, #520]
	cmp	r2, r3
	bcc	.L117
	.loc 2 1095 0
	mov	r3, #1
	str	r3, [sp, #512]
	.loc 2 1096 0
	b	.L118
.L125:
	.loc 2 1097 0
	.syntax divided
@ 1097 "objectfollower.c" 1
	1:
        .section .wcet_annot
        .long 1b
        .long 1
        .long 6
                        .text
@ 0 "" 2
	.loc 2 1098 0
	.arm
	.syntax divided
	ldr	r3, [sp, #512]
	cmp	r3, #10
	beq	.L119
	.loc 2 1099 0
	mov	r3, #1
	str	r3, [sp, #288]
	.loc 2 1100 0
	ldr	r3, [sp, #288]
	cmp	r3, #0
	blt	.L316
	.loc 2 1101 0
	ldr	r3, [sp, #288]
	cmp	r3, #127
	bgt	.L316
	.loc 2 1102 0
	ldr	r3, .L329+32
	ldr	r3, [r3]
	cmp	r3, #0
	blt	.L316
	.loc 2 1103 0
	ldr	r3, .L329+32
	ldr	r3, [r3]
	cmp	r3, #15
	bgt	.L316
	.loc 2 1104 0
	ldr	r3, .L329+36
	ldr	r3, [r3]
	cmp	r3, #0
	blt	.L316
	.loc 2 1105 0
	ldr	r3, .L329+36
	ldr	r3, [r3]
	cmp	r3, #7
	bgt	.L316
	.loc 2 1108 0
	mov	r3, #0
	str	r3, [sp, #400]
	.loc 2 1109 0
	b	.L121
.L122:
	.loc 2 1110 0
	.syntax divided
@ 1110 "objectfollower.c" 1
	1:
        .section .wcet_annot
        .long 1b
        .long 1
        .long 5
                        .text
@ 0 "" 2
	.loc 2 1114 0
	.arm
	.syntax divided
	ldr	r3, [sp, #400]
	add	r3, r3, #1
	str	r3, [sp, #400]
.L121:
	.loc 2 1109 0
	ldr	r3, [sp, #400]
	cmp	r3, #4
	ble	.L122
.L316:
	.loc 2 1122 0
	mov	r0, r0	@ nop
.L123:
	.loc 2 1124 0
	ldr	r3, .L329+32
	ldr	r3, [r3]
	add	r3, r3, #1
	ldr	r2, .L329+32
	str	r3, [r2]
	b	.L124
.L119:
	.loc 2 1126 0
	ldr	r3, .L329+32
	mov	r2, #0
	str	r2, [r3]
	.loc 2 1127 0
	ldr	r3, .L329+36
	ldr	r3, [r3]
	add	r3, r3, #1
	ldr	r2, .L329+36
	str	r3, [r2]
.L124:
	.loc 2 1129 0
	ldr	r3, [sp, #512]
	add	r3, r3, #1
	str	r3, [sp, #512]
.L118:
	.loc 2 1096 0
	ldr	r3, [sp, #512]
	cmp	r3, #0
	bne	.L125
	.loc 2 1131 0
	mov	r0, r0	@ nop
	.loc 2 1133 0
	mov	r0, r0	@ nop
	.loc 2 1135 0
	mov	r0, r0	@ nop
.L126:
.L127:
.L128:
	.loc 2 1137 0
	ldrb	r3, [sp, #351]
	strb	r3, [sp, #287]
	.loc 2 1138 0
	ldrb	r3, [sp, #351]
	add	r3, r3, #1
	strb	r3, [sp, #351]
	.loc 2 1139 0
	mov	r3, #0
	str	r3, [sp, #280]
	.loc 2 1140 0
	ldrb	r3, [sp, #287]	@ zero_extendqisi2
	str	r3, [sp, #276]
	.loc 2 1141 0
	ldr	r2, .L329+32
	ldr	r3, [sp, #280]
	str	r3, [r2]
	.loc 2 1142 0
	ldr	r2, .L329+36
	ldr	r3, [sp, #276]
	str	r3, [r2]
	.loc 2 1143 0
	mov	r0, r0	@ nop
.L129:
	.loc 2 1146 0
	mov	r3, #4
	str	r3, [sp, #596]
	.loc 2 1147 0
	b	.L130
.L137:
	.loc 2 1148 0
	.syntax divided
@ 1148 "objectfollower.c" 1
	1:
        .section .wcet_annot
        .long 1b
        .long 1
        .long 4
                        .text
@ 0 "" 2
	.loc 2 1149 0
	.arm
	.syntax divided
	ldr	r3, [sp, #596]
	cmp	r3, #10
	beq	.L131
	.loc 2 1150 0
	mov	r3, #1
	str	r3, [sp, #272]
	.loc 2 1151 0
	ldr	r3, [sp, #272]
	cmp	r3, #0
	blt	.L317
	.loc 2 1152 0
	ldr	r3, [sp, #272]
	cmp	r3, #127
	bgt	.L317
	.loc 2 1153 0
	ldr	r3, .L329+32
	ldr	r3, [r3]
	cmp	r3, #0
	blt	.L317
	.loc 2 1154 0
	ldr	r3, .L329+32
	ldr	r3, [r3]
	cmp	r3, #15
	bgt	.L317
	.loc 2 1155 0
	ldr	r3, .L329+36
	ldr	r3, [r3]
	cmp	r3, #0
	blt	.L317
	.loc 2 1156 0
	ldr	r3, .L329+36
	ldr	r3, [r3]
	cmp	r3, #7
	bgt	.L317
	.loc 2 1159 0
	mov	r3, #0
	str	r3, [sp, #396]
	.loc 2 1160 0
	b	.L133
.L134:
	.loc 2 1161 0
	.syntax divided
@ 1161 "objectfollower.c" 1
	1:
        .section .wcet_annot
        .long 1b
        .long 1
        .long 5
                        .text
@ 0 "" 2
	.loc 2 1165 0
	.arm
	.syntax divided
	ldr	r3, [sp, #396]
	add	r3, r3, #1
	str	r3, [sp, #396]
.L133:
	.loc 2 1160 0
	ldr	r3, [sp, #396]
	cmp	r3, #4
	ble	.L134
.L317:
	.loc 2 1173 0
	mov	r0, r0	@ nop
.L135:
	.loc 2 1175 0
	ldr	r3, .L329+32
	ldr	r3, [r3]
	add	r3, r3, #1
	ldr	r2, .L329+32
	str	r3, [r2]
	b	.L136
.L131:
	.loc 2 1177 0
	ldr	r3, .L329+32
	mov	r2, #0
	str	r2, [r3]
	.loc 2 1178 0
	ldr	r3, .L329+36
	ldr	r3, [r3]
	add	r3, r3, #1
	ldr	r2, .L329+36
	str	r3, [r2]
.L136:
	.loc 2 1180 0
	ldr	r3, [sp, #596]
	add	r3, r3, #1
	str	r3, [sp, #596]
.L130:
	.loc 2 1147 0
	ldr	r3, [sp, #596]
	cmp	r3, #0
	bne	.L137
	.loc 2 1182 0
	mov	r0, r0	@ nop
.L138:
	.loc 2 1184 0
	ldr	r3, .L329+8
	ldr	r3, [r3]
	str	r3, [sp, #268]
	.loc 2 1185 0
	mov	r3, #4
	str	r3, [sp, #264]
	.loc 2 1186 0
	ldr	r3, [sp, #268]
	cmp	r3, #0
	bge	.L139
	.loc 2 1187 0
	ldr	r3, [sp, #268]
	rsb	r3, r3, #0
	str	r3, [sp, #564]
	b	.L140
.L139:
	.loc 2 1189 0
	ldr	r3, [sp, #268]
	str	r3, [sp, #564]
.L140:
	.loc 2 1191 0
	ldr	r3, [sp, #564]
	str	r3, [sp, #508]
	.loc 2 1192 0
	ldr	r3, [sp, #264]
	str	r3, [sp, #504]
	.loc 2 1193 0
	ldr	r3, [sp, #268]
	mov	r3, r3, lsr #31
	and	r3, r3, #255
	str	r3, [sp, #260]
	.loc 2 1195 0
	mov	r3, #0
	str	r3, [sp, #500]
	.loc 2 1197 0
	ldr	r3, [sp, #504]
	cmp	r3, #11
	bls	.L142
	.loc 2 1198 0
	mov	r3, #11
	str	r3, [sp, #504]
	.loc 2 1200 0
	b	.L142
.L143:
	.loc 2 1201 0
	.syntax divided
@ 1201 "objectfollower.c" 1
	1:
        .section .wcet_annot
        .long 1b
        .long 1
        .long 6
                        .text
@ 0 "" 2
	.loc 2 1203 0
	.arm
	.syntax divided
	ldr	r3, [sp, #500]
	add	r3, r3, #1
	str	r3, [sp, #500]
	.loc 2 1205 0
	mov	r3, #1
	str	r3, [sp, #508]
.L142:
	.loc 2 1200 0
	ldr	r3, [sp, #508]
	cmp	r3, #0
	bne	.L143
	.loc 2 1207 0
	ldr	r3, [sp, #500]
	cmp	r3, #0
	bne	.L144
	.loc 2 1209 0
	ldr	r3, [sp, #500]
	add	r3, r3, #1
	str	r3, [sp, #500]
.L144:
	.loc 2 1212 0
	ldr	r3, [sp, #260]
	cmp	r3, #0
	beq	.L146
	.loc 2 1214 0
	ldr	r3, [sp, #500]
	add	r3, r3, #1
	str	r3, [sp, #500]
	.loc 2 1217 0
	b	.L146
.L147:
	.loc 2 1218 0
	.syntax divided
@ 1218 "objectfollower.c" 1
	1:
        .section .wcet_annot
        .long 1b
        .long 1
        .long 5
                        .text
@ 0 "" 2
	.loc 2 1220 0
	.arm
	.syntax divided
	ldr	r3, [sp, #500]
	add	r3, r3, #1
	str	r3, [sp, #500]
.L146:
	.loc 2 1217 0
	ldr	r2, [sp, #500]
	ldr	r3, [sp, #504]
	cmp	r2, r3
	bcc	.L147
	.loc 2 1223 0
	mov	r3, #1
	str	r3, [sp, #496]
	.loc 2 1224 0
	b	.L148
.L155:
	.loc 2 1225 0
	.syntax divided
@ 1225 "objectfollower.c" 1
	1:
        .section .wcet_annot
        .long 1b
        .long 1
        .long 5
                        .text
@ 0 "" 2
	.loc 2 1226 0
	.arm
	.syntax divided
	ldr	r3, [sp, #496]
	cmp	r3, #10
	beq	.L149
	.loc 2 1227 0
	mov	r3, #1
	str	r3, [sp, #256]
	.loc 2 1228 0
	ldr	r3, [sp, #256]
	cmp	r3, #0
	blt	.L318
	.loc 2 1229 0
	ldr	r3, [sp, #256]
	cmp	r3, #127
	bgt	.L318
	.loc 2 1230 0
	ldr	r3, .L329+32
	ldr	r3, [r3]
	cmp	r3, #0
	blt	.L318
	.loc 2 1231 0
	ldr	r3, .L329+32
	ldr	r3, [r3]
	cmp	r3, #15
	bgt	.L318
	.loc 2 1232 0
	ldr	r3, .L329+36
	ldr	r3, [r3]
	cmp	r3, #0
	blt	.L318
	.loc 2 1233 0
	ldr	r3, .L329+36
	ldr	r3, [r3]
	cmp	r3, #7
	bgt	.L318
	.loc 2 1236 0
	mov	r3, #0
	str	r3, [sp, #392]
	.loc 2 1237 0
	b	.L151
.L152:
	.loc 2 1238 0
	.syntax divided
@ 1238 "objectfollower.c" 1
	1:
        .section .wcet_annot
        .long 1b
        .long 1
        .long 5
                        .text
@ 0 "" 2
	.loc 2 1242 0
	.arm
	.syntax divided
	ldr	r3, [sp, #392]
	add	r3, r3, #1
	str	r3, [sp, #392]
.L151:
	.loc 2 1237 0
	ldr	r3, [sp, #392]
	cmp	r3, #4
	ble	.L152
.L318:
	.loc 2 1250 0
	mov	r0, r0	@ nop
.L153:
	.loc 2 1252 0
	ldr	r3, .L329+32
	ldr	r3, [r3]
	add	r3, r3, #1
	ldr	r2, .L329+32
	str	r3, [r2]
	b	.L154
.L149:
	.loc 2 1254 0
	ldr	r3, .L329+32
	mov	r2, #0
	str	r2, [r3]
	.loc 2 1255 0
	ldr	r3, .L329+36
	ldr	r3, [r3]
	add	r3, r3, #1
	ldr	r2, .L329+36
	str	r3, [r2]
.L154:
	.loc 2 1257 0
	ldr	r3, [sp, #496]
	add	r3, r3, #1
	str	r3, [sp, #496]
.L148:
	.loc 2 1224 0
	ldr	r3, [sp, #496]
	cmp	r3, #0
	bne	.L155
	.loc 2 1259 0
	mov	r0, r0	@ nop
	.loc 2 1261 0
	mov	r0, r0	@ nop
	.loc 2 1263 0
	mov	r0, r0	@ nop
.L156:
.L157:
.L158:
	.loc 2 1265 0
	ldrb	r3, [sp, #351]
	strb	r3, [sp, #255]
	.loc 2 1266 0
	ldrb	r3, [sp, #351]
	add	r3, r3, #1
	strb	r3, [sp, #351]
	.loc 2 1267 0
	mov	r3, #0
	str	r3, [sp, #248]
	.loc 2 1268 0
	ldrb	r3, [sp, #255]	@ zero_extendqisi2
	str	r3, [sp, #244]
	.loc 2 1269 0
	ldr	r2, .L329+32
	ldr	r3, [sp, #248]
	str	r3, [r2]
	.loc 2 1270 0
	ldr	r2, .L329+36
	ldr	r3, [sp, #244]
	str	r3, [r2]
	.loc 2 1271 0
	mov	r0, r0	@ nop
.L159:
	.loc 2 1274 0
	mov	r3, #6
	str	r3, [sp, #592]
	.loc 2 1275 0
	b	.L160
.L167:
	.loc 2 1276 0
	.syntax divided
@ 1276 "objectfollower.c" 1
	1:
        .section .wcet_annot
        .long 1b
        .long 1
        .long 6
                        .text
@ 0 "" 2
	.loc 2 1277 0
	.arm
	.syntax divided
	ldr	r3, [sp, #592]
	cmp	r3, #10
	beq	.L161
	.loc 2 1278 0
	mov	r3, #1
	str	r3, [sp, #240]
	.loc 2 1279 0
	ldr	r3, [sp, #240]
	cmp	r3, #0
	blt	.L319
	.loc 2 1280 0
	ldr	r3, [sp, #240]
	cmp	r3, #127
	bgt	.L319
	.loc 2 1281 0
	ldr	r3, .L329+32
	ldr	r3, [r3]
	cmp	r3, #0
	blt	.L319
	.loc 2 1282 0
	ldr	r3, .L329+32
	ldr	r3, [r3]
	cmp	r3, #15
	bgt	.L319
	.loc 2 1283 0
	ldr	r3, .L329+36
	ldr	r3, [r3]
	cmp	r3, #0
	blt	.L319
	.loc 2 1284 0
	ldr	r3, .L329+36
	ldr	r3, [r3]
	cmp	r3, #7
	bgt	.L319
	.loc 2 1287 0
	mov	r3, #0
	str	r3, [sp, #388]
	.loc 2 1288 0
	b	.L163
.L164:
	.loc 2 1289 0
	.syntax divided
@ 1289 "objectfollower.c" 1
	1:
        .section .wcet_annot
        .long 1b
        .long 1
        .long 5
                        .text
@ 0 "" 2
	.loc 2 1293 0
	.arm
	.syntax divided
	ldr	r3, [sp, #388]
	add	r3, r3, #1
	str	r3, [sp, #388]
.L163:
	.loc 2 1288 0
	ldr	r3, [sp, #388]
	cmp	r3, #4
	ble	.L164
.L319:
	.loc 2 1301 0
	mov	r0, r0	@ nop
.L165:
	.loc 2 1303 0
	ldr	r3, .L329+32
	ldr	r3, [r3]
	add	r3, r3, #1
	ldr	r2, .L329+32
	str	r3, [r2]
	b	.L166
.L161:
	.loc 2 1305 0
	ldr	r3, .L329+32
	mov	r2, #0
	str	r2, [r3]
	.loc 2 1306 0
	ldr	r3, .L329+36
	ldr	r3, [r3]
	add	r3, r3, #1
	ldr	r2, .L329+36
	str	r3, [r2]
.L166:
	.loc 2 1308 0
	ldr	r3, [sp, #592]
	add	r3, r3, #1
	str	r3, [sp, #592]
.L160:
	.loc 2 1275 0
	ldr	r3, [sp, #592]
	cmp	r3, #0
	bne	.L167
	.loc 2 1310 0
	mov	r0, r0	@ nop
.L168:
	.loc 2 1312 0
	ldr	r3, .L329+12
	ldr	r3, [r3]
	str	r3, [sp, #236]
	.loc 2 1313 0
	mov	r3, #4
	str	r3, [sp, #232]
	.loc 2 1314 0
	ldr	r3, [sp, #236]
	cmp	r3, #0
	bge	.L169
	.loc 2 1315 0
	ldr	r3, [sp, #236]
	rsb	r3, r3, #0
	str	r3, [sp, #560]
	b	.L170
.L169:
	.loc 2 1317 0
	ldr	r3, [sp, #236]
	str	r3, [sp, #560]
.L170:
	.loc 2 1319 0
	ldr	r3, [sp, #560]
	str	r3, [sp, #492]
	.loc 2 1320 0
	ldr	r3, [sp, #232]
	str	r3, [sp, #488]
	.loc 2 1321 0
	ldr	r3, [sp, #236]
	mov	r3, r3, lsr #31
	and	r3, r3, #255
	str	r3, [sp, #228]
	.loc 2 1323 0
	mov	r3, #0
	str	r3, [sp, #484]
	.loc 2 1325 0
	ldr	r3, [sp, #488]
	cmp	r3, #11
	bls	.L172
	.loc 2 1326 0
	mov	r3, #11
	str	r3, [sp, #488]
	.loc 2 1328 0
	b	.L172
.L173:
	.loc 2 1329 0
	.syntax divided
@ 1329 "objectfollower.c" 1
	1:
        .section .wcet_annot
        .long 1b
        .long 1
        .long 5
                        .text
@ 0 "" 2
	.loc 2 1331 0
	.arm
	.syntax divided
	ldr	r3, [sp, #484]
	add	r3, r3, #1
	str	r3, [sp, #484]
	.loc 2 1333 0
	mov	r3, #1
	str	r3, [sp, #492]
.L172:
	.loc 2 1328 0
	ldr	r3, [sp, #492]
	cmp	r3, #0
	bne	.L173
	.loc 2 1335 0
	ldr	r3, [sp, #484]
	cmp	r3, #0
	bne	.L174
	.loc 2 1337 0
	ldr	r3, [sp, #484]
	add	r3, r3, #1
	str	r3, [sp, #484]
.L174:
	.loc 2 1340 0
	ldr	r3, [sp, #228]
	cmp	r3, #0
	beq	.L176
	.loc 2 1342 0
	ldr	r3, [sp, #484]
	add	r3, r3, #1
	str	r3, [sp, #484]
	.loc 2 1345 0
	b	.L176
.L177:
	.loc 2 1346 0
	.syntax divided
@ 1346 "objectfollower.c" 1
	1:
        .section .wcet_annot
        .long 1b
        .long 1
        .long 5
                        .text
@ 0 "" 2
	.loc 2 1348 0
	.arm
	.syntax divided
	ldr	r3, [sp, #484]
	add	r3, r3, #1
	str	r3, [sp, #484]
.L176:
	.loc 2 1345 0
	ldr	r2, [sp, #484]
	ldr	r3, [sp, #488]
	cmp	r2, r3
	bcc	.L177
	.loc 2 1351 0
	mov	r3, #1
	str	r3, [sp, #480]
	.loc 2 1352 0
	b	.L178
.L185:
	.loc 2 1353 0
	.syntax divided
@ 1353 "objectfollower.c" 1
	1:
        .section .wcet_annot
        .long 1b
        .long 1
        .long 5
                        .text
@ 0 "" 2
	.loc 2 1354 0
	.arm
	.syntax divided
	ldr	r3, [sp, #480]
	cmp	r3, #10
	beq	.L179
	.loc 2 1355 0
	mov	r3, #1
	str	r3, [sp, #224]
	.loc 2 1356 0
	ldr	r3, [sp, #224]
	cmp	r3, #0
	blt	.L320
	.loc 2 1357 0
	ldr	r3, [sp, #224]
	cmp	r3, #127
	bgt	.L320
	.loc 2 1358 0
	ldr	r3, .L329+32
	ldr	r3, [r3]
	cmp	r3, #0
	blt	.L320
	.loc 2 1359 0
	ldr	r3, .L329+32
	ldr	r3, [r3]
	cmp	r3, #15
	bgt	.L320
	.loc 2 1360 0
	ldr	r3, .L329+36
	ldr	r3, [r3]
	cmp	r3, #0
	blt	.L320
	.loc 2 1361 0
	ldr	r3, .L329+36
	ldr	r3, [r3]
	cmp	r3, #7
	bgt	.L320
	.loc 2 1364 0
	mov	r3, #0
	str	r3, [sp, #384]
	.loc 2 1365 0
	b	.L181
.L182:
	.loc 2 1366 0
	.syntax divided
@ 1366 "objectfollower.c" 1
	1:
        .section .wcet_annot
        .long 1b
        .long 1
        .long 5
                        .text
@ 0 "" 2
	.loc 2 1370 0
	.arm
	.syntax divided
	ldr	r3, [sp, #384]
	add	r3, r3, #1
	str	r3, [sp, #384]
.L181:
	.loc 2 1365 0
	ldr	r3, [sp, #384]
	cmp	r3, #4
	ble	.L182
.L320:
	.loc 2 1378 0
	mov	r0, r0	@ nop
.L183:
	.loc 2 1380 0
	ldr	r3, .L329+32
	ldr	r3, [r3]
	add	r3, r3, #1
	ldr	r2, .L329+32
	str	r3, [r2]
	b	.L184
.L179:
	.loc 2 1382 0
	ldr	r3, .L329+32
	mov	r2, #0
	str	r2, [r3]
	.loc 2 1383 0
	ldr	r3, .L329+36
	ldr	r3, [r3]
	add	r3, r3, #1
	ldr	r2, .L329+36
	str	r3, [r2]
.L184:
	.loc 2 1385 0
	ldr	r3, [sp, #480]
	add	r3, r3, #1
	str	r3, [sp, #480]
.L178:
	.loc 2 1352 0
	ldr	r3, [sp, #480]
	cmp	r3, #0
	bne	.L185
	.loc 2 1387 0
	mov	r0, r0	@ nop
	.loc 2 1389 0
	mov	r0, r0	@ nop
	.loc 2 1391 0
	mov	r0, r0	@ nop
.L186:
.L187:
.L188:
	.loc 2 1393 0
	ldrb	r3, [sp, #351]
	strb	r3, [sp, #223]
	.loc 2 1394 0
	ldrb	r3, [sp, #351]
	add	r3, r3, #1
	strb	r3, [sp, #351]
	.loc 2 1395 0
	mov	r3, #0
	str	r3, [sp, #216]
	.loc 2 1396 0
	ldrb	r3, [sp, #223]	@ zero_extendqisi2
	str	r3, [sp, #212]
	.loc 2 1397 0
	ldr	r2, .L329+32
	ldr	r3, [sp, #216]
	str	r3, [r2]
	.loc 2 1398 0
	ldr	r2, .L329+36
	ldr	r3, [sp, #212]
	str	r3, [r2]
	.loc 2 1399 0
	mov	r0, r0	@ nop
.L189:
	.loc 2 1402 0
	mov	r3, #10
	str	r3, [sp, #588]
	.loc 2 1403 0
	b	.L190
.L197:
	.loc 2 1404 0
	.syntax divided
@ 1404 "objectfollower.c" 1
	1:
        .section .wcet_annot
        .long 1b
        .long 1
        .long 10
                        .text
@ 0 "" 2
	.loc 2 1405 0
	.arm
	.syntax divided
	ldr	r3, [sp, #588]
	cmp	r3, #10
	beq	.L191
	.loc 2 1406 0
	mov	r3, #1
	str	r3, [sp, #208]
	.loc 2 1407 0
	ldr	r3, [sp, #208]
	cmp	r3, #0
	blt	.L321
	.loc 2 1408 0
	ldr	r3, [sp, #208]
	cmp	r3, #127
	bgt	.L321
	.loc 2 1409 0
	ldr	r3, .L329+32
	ldr	r3, [r3]
	cmp	r3, #0
	blt	.L321
	.loc 2 1410 0
	ldr	r3, .L329+32
	ldr	r3, [r3]
	cmp	r3, #15
	bgt	.L321
	.loc 2 1411 0
	ldr	r3, .L329+36
	ldr	r3, [r3]
	cmp	r3, #0
	blt	.L321
	.loc 2 1412 0
	ldr	r3, .L329+36
	ldr	r3, [r3]
	cmp	r3, #7
	bgt	.L321
	.loc 2 1415 0
	mov	r3, #0
	str	r3, [sp, #380]
	.loc 2 1416 0
	b	.L193
.L194:
	.loc 2 1417 0
	.syntax divided
@ 1417 "objectfollower.c" 1
	1:
        .section .wcet_annot
        .long 1b
        .long 1
        .long 5
                        .text
@ 0 "" 2
	.loc 2 1421 0
	.arm
	.syntax divided
	ldr	r3, [sp, #380]
	add	r3, r3, #1
	str	r3, [sp, #380]
.L193:
	.loc 2 1416 0
	ldr	r3, [sp, #380]
	cmp	r3, #4
	ble	.L194
.L321:
	.loc 2 1429 0
	mov	r0, r0	@ nop
.L195:
	.loc 2 1431 0
	ldr	r3, .L329+32
	ldr	r3, [r3]
	add	r3, r3, #1
	ldr	r2, .L329+32
	str	r3, [r2]
	b	.L196
.L330:
	.align	2
.L329:
	.word	sizeLCD
	.word	areaLCD
	.word	xLCD
	.word	speedLCD
	.word	devspeedLCD
	.word	diradjLCD
	.word	lmotLCD
	.word	rmotLCD
	.word	display_x
	.word	display_y
	.word	display_tick
.L191:
	.loc 2 1433 0
	ldr	r3, .L329+32
	mov	r2, #0
	str	r2, [r3]
	.loc 2 1434 0
	ldr	r3, .L329+36
	ldr	r3, [r3]
	add	r3, r3, #1
	ldr	r2, .L329+36
	str	r3, [r2]
.L196:
	.loc 2 1436 0
	ldr	r3, [sp, #588]
	add	r3, r3, #1
	str	r3, [sp, #588]
.L190:
	.loc 2 1403 0
	ldr	r3, [sp, #588]
	cmp	r3, #0
	bne	.L197
	.loc 2 1438 0
	mov	r0, r0	@ nop
.L198:
	.loc 2 1440 0
	ldr	r3, .L329+16
	ldr	r3, [r3]
	str	r3, [sp, #204]
	.loc 2 1441 0
	mov	r3, #4
	str	r3, [sp, #200]
	.loc 2 1442 0
	ldr	r3, [sp, #204]
	cmp	r3, #0
	bge	.L199
	.loc 2 1443 0
	ldr	r3, [sp, #204]
	rsb	r3, r3, #0
	str	r3, [sp, #556]
	b	.L200
.L199:
	.loc 2 1445 0
	ldr	r3, [sp, #204]
	str	r3, [sp, #556]
.L200:
	.loc 2 1447 0
	ldr	r3, [sp, #556]
	str	r3, [sp, #476]
	.loc 2 1448 0
	ldr	r3, [sp, #200]
	str	r3, [sp, #472]
	.loc 2 1449 0
	ldr	r3, [sp, #204]
	mov	r3, r3, lsr #31
	and	r3, r3, #255
	str	r3, [sp, #196]
	.loc 2 1451 0
	mov	r3, #0
	str	r3, [sp, #468]
	.loc 2 1453 0
	ldr	r3, [sp, #472]
	cmp	r3, #11
	bls	.L202
	.loc 2 1454 0
	mov	r3, #11
	str	r3, [sp, #472]
	.loc 2 1456 0
	b	.L202
.L203:
	.loc 2 1457 0
	.syntax divided
@ 1457 "objectfollower.c" 1
	1:
        .section .wcet_annot
        .long 1b
        .long 1
        .long 10
                        .text
@ 0 "" 2
	.loc 2 1459 0
	.arm
	.syntax divided
	ldr	r3, [sp, #468]
	add	r3, r3, #1
	str	r3, [sp, #468]
	.loc 2 1461 0
	mov	r3, #1
	str	r3, [sp, #476]
.L202:
	.loc 2 1456 0
	ldr	r3, [sp, #476]
	cmp	r3, #0
	bne	.L203
	.loc 2 1463 0
	ldr	r3, [sp, #468]
	cmp	r3, #0
	bne	.L204
	.loc 2 1465 0
	ldr	r3, [sp, #468]
	add	r3, r3, #1
	str	r3, [sp, #468]
.L204:
	.loc 2 1468 0
	ldr	r3, [sp, #196]
	cmp	r3, #0
	beq	.L206
	.loc 2 1470 0
	ldr	r3, [sp, #468]
	add	r3, r3, #1
	str	r3, [sp, #468]
	.loc 2 1473 0
	b	.L206
.L207:
	.loc 2 1474 0
	.syntax divided
@ 1474 "objectfollower.c" 1
	1:
        .section .wcet_annot
        .long 1b
        .long 1
        .long 11
                        .text
@ 0 "" 2
	.loc 2 1476 0
	.arm
	.syntax divided
	ldr	r3, [sp, #468]
	add	r3, r3, #1
	str	r3, [sp, #468]
.L206:
	.loc 2 1473 0
	ldr	r2, [sp, #468]
	ldr	r3, [sp, #472]
	cmp	r2, r3
	bcc	.L207
	.loc 2 1479 0
	mov	r3, #1
	str	r3, [sp, #464]
	.loc 2 1480 0
	b	.L208
.L215:
	.loc 2 1481 0
	.syntax divided
@ 1481 "objectfollower.c" 1
	1:
        .section .wcet_annot
        .long 1b
        .long 1
        .long 5
                        .text
@ 0 "" 2
	.loc 2 1482 0
	.arm
	.syntax divided
	ldr	r3, [sp, #464]
	cmp	r3, #10
	beq	.L209
	.loc 2 1483 0
	mov	r3, #1
	str	r3, [sp, #192]
	.loc 2 1484 0
	ldr	r3, [sp, #192]
	cmp	r3, #0
	blt	.L322
	.loc 2 1485 0
	ldr	r3, [sp, #192]
	cmp	r3, #127
	bgt	.L322
	.loc 2 1486 0
	ldr	r3, .L329+32
	ldr	r3, [r3]
	cmp	r3, #0
	blt	.L322
	.loc 2 1487 0
	ldr	r3, .L329+32
	ldr	r3, [r3]
	cmp	r3, #15
	bgt	.L322
	.loc 2 1488 0
	ldr	r3, .L329+36
	ldr	r3, [r3]
	cmp	r3, #0
	blt	.L322
	.loc 2 1489 0
	ldr	r3, .L329+36
	ldr	r3, [r3]
	cmp	r3, #7
	bgt	.L322
	.loc 2 1492 0
	mov	r3, #0
	str	r3, [sp, #376]
	.loc 2 1493 0
	b	.L211
.L212:
	.loc 2 1494 0
	.syntax divided
@ 1494 "objectfollower.c" 1
	1:
        .section .wcet_annot
        .long 1b
        .long 1
        .long 5
                        .text
@ 0 "" 2
	.loc 2 1498 0
	.arm
	.syntax divided
	ldr	r3, [sp, #376]
	add	r3, r3, #1
	str	r3, [sp, #376]
.L211:
	.loc 2 1493 0
	ldr	r3, [sp, #376]
	cmp	r3, #4
	ble	.L212
.L322:
	.loc 2 1506 0
	mov	r0, r0	@ nop
.L213:
	.loc 2 1508 0
	ldr	r3, .L329+32
	ldr	r3, [r3]
	add	r3, r3, #1
	ldr	r2, .L329+32
	str	r3, [r2]
	b	.L214
.L209:
	.loc 2 1510 0
	ldr	r3, .L329+32
	mov	r2, #0
	str	r2, [r3]
	.loc 2 1511 0
	ldr	r3, .L329+36
	ldr	r3, [r3]
	add	r3, r3, #1
	ldr	r2, .L329+36
	str	r3, [r2]
.L214:
	.loc 2 1513 0
	ldr	r3, [sp, #464]
	add	r3, r3, #1
	str	r3, [sp, #464]
.L208:
	.loc 2 1480 0
	ldr	r3, [sp, #464]
	cmp	r3, #0
	bne	.L215
	.loc 2 1515 0
	mov	r0, r0	@ nop
	.loc 2 1517 0
	mov	r0, r0	@ nop
	.loc 2 1519 0
	mov	r0, r0	@ nop
.L216:
.L217:
.L218:
	.loc 2 1521 0
	ldrb	r3, [sp, #351]
	strb	r3, [sp, #191]
	.loc 2 1522 0
	ldrb	r3, [sp, #351]
	add	r3, r3, #1
	strb	r3, [sp, #351]
	.loc 2 1523 0
	mov	r3, #0
	str	r3, [sp, #184]
	.loc 2 1524 0
	ldrb	r3, [sp, #191]	@ zero_extendqisi2
	str	r3, [sp, #180]
	.loc 2 1525 0
	ldr	r2, .L329+32
	ldr	r3, [sp, #184]
	str	r3, [r2]
	.loc 2 1526 0
	ldr	r2, .L329+36
	ldr	r3, [sp, #180]
	str	r3, [r2]
	.loc 2 1527 0
	mov	r0, r0	@ nop
.L219:
	.loc 2 1530 0
	mov	r3, #8
	str	r3, [sp, #584]
	.loc 2 1531 0
	b	.L220
.L227:
	.loc 2 1532 0
	.syntax divided
@ 1532 "objectfollower.c" 1
	1:
        .section .wcet_annot
        .long 1b
        .long 1
        .long 8
                        .text
@ 0 "" 2
	.loc 2 1533 0
	.arm
	.syntax divided
	ldr	r3, [sp, #584]
	cmp	r3, #10
	beq	.L221
	.loc 2 1534 0
	mov	r3, #1
	str	r3, [sp, #176]
	.loc 2 1535 0
	ldr	r3, [sp, #176]
	cmp	r3, #0
	blt	.L323
	.loc 2 1536 0
	ldr	r3, [sp, #176]
	cmp	r3, #127
	bgt	.L323
	.loc 2 1537 0
	ldr	r3, .L329+32
	ldr	r3, [r3]
	cmp	r3, #0
	blt	.L323
	.loc 2 1538 0
	ldr	r3, .L329+32
	ldr	r3, [r3]
	cmp	r3, #15
	bgt	.L323
	.loc 2 1539 0
	ldr	r3, .L329+36
	ldr	r3, [r3]
	cmp	r3, #0
	blt	.L323
	.loc 2 1540 0
	ldr	r3, .L329+36
	ldr	r3, [r3]
	cmp	r3, #7
	bgt	.L323
	.loc 2 1543 0
	mov	r3, #0
	str	r3, [sp, #372]
	.loc 2 1544 0
	b	.L223
.L224:
	.loc 2 1545 0
	.syntax divided
@ 1545 "objectfollower.c" 1
	1:
        .section .wcet_annot
        .long 1b
        .long 1
        .long 5
                        .text
@ 0 "" 2
	.loc 2 1549 0
	.arm
	.syntax divided
	ldr	r3, [sp, #372]
	add	r3, r3, #1
	str	r3, [sp, #372]
.L223:
	.loc 2 1544 0
	ldr	r3, [sp, #372]
	cmp	r3, #4
	ble	.L224
.L323:
	.loc 2 1557 0
	mov	r0, r0	@ nop
.L225:
	.loc 2 1559 0
	ldr	r3, .L329+32
	ldr	r3, [r3]
	add	r3, r3, #1
	ldr	r2, .L329+32
	str	r3, [r2]
	b	.L226
.L221:
	.loc 2 1561 0
	ldr	r3, .L329+32
	mov	r2, #0
	str	r2, [r3]
	.loc 2 1562 0
	ldr	r3, .L329+36
	ldr	r3, [r3]
	add	r3, r3, #1
	ldr	r2, .L329+36
	str	r3, [r2]
.L226:
	.loc 2 1564 0
	ldr	r3, [sp, #584]
	add	r3, r3, #1
	str	r3, [sp, #584]
.L220:
	.loc 2 1531 0
	ldr	r3, [sp, #584]
	cmp	r3, #0
	bne	.L227
	.loc 2 1566 0
	mov	r0, r0	@ nop
.L228:
	.loc 2 1568 0
	ldr	r3, .L329+20
	ldr	r3, [r3]
	str	r3, [sp, #172]
	.loc 2 1569 0
	mov	r3, #4
	str	r3, [sp, #168]
	.loc 2 1570 0
	ldr	r3, [sp, #172]
	cmp	r3, #0
	bge	.L229
	.loc 2 1571 0
	ldr	r3, [sp, #172]
	rsb	r3, r3, #0
	str	r3, [sp, #552]
	b	.L230
.L229:
	.loc 2 1573 0
	ldr	r3, [sp, #172]
	str	r3, [sp, #552]
.L230:
	.loc 2 1575 0
	ldr	r3, [sp, #552]
	str	r3, [sp, #460]
	.loc 2 1576 0
	ldr	r3, [sp, #168]
	str	r3, [sp, #456]
	.loc 2 1577 0
	ldr	r3, [sp, #172]
	mov	r3, r3, lsr #31
	and	r3, r3, #255
	str	r3, [sp, #164]
	.loc 2 1579 0
	mov	r3, #0
	str	r3, [sp, #452]
	.loc 2 1581 0
	ldr	r3, [sp, #456]
	cmp	r3, #11
	bls	.L232
	.loc 2 1582 0
	mov	r3, #11
	str	r3, [sp, #456]
	.loc 2 1584 0
	b	.L232
.L233:
	.loc 2 1585 0
	.syntax divided
@ 1585 "objectfollower.c" 1
	1:
        .section .wcet_annot
        .long 1b
        .long 1
        .long 5
                        .text
@ 0 "" 2
	.loc 2 1587 0
	.arm
	.syntax divided
	ldr	r3, [sp, #452]
	add	r3, r3, #1
	str	r3, [sp, #452]
	.loc 2 1589 0
	mov	r3, #1
	str	r3, [sp, #460]
.L232:
	.loc 2 1584 0
	ldr	r3, [sp, #460]
	cmp	r3, #0
	bne	.L233
	.loc 2 1591 0
	ldr	r3, [sp, #452]
	cmp	r3, #0
	bne	.L234
	.loc 2 1593 0
	ldr	r3, [sp, #452]
	add	r3, r3, #1
	str	r3, [sp, #452]
.L234:
	.loc 2 1596 0
	ldr	r3, [sp, #164]
	cmp	r3, #0
	beq	.L236
	.loc 2 1598 0
	ldr	r3, [sp, #452]
	add	r3, r3, #1
	str	r3, [sp, #452]
	.loc 2 1601 0
	b	.L236
.L237:
	.loc 2 1602 0
	.syntax divided
@ 1602 "objectfollower.c" 1
	1:
        .section .wcet_annot
        .long 1b
        .long 1
        .long 5
                        .text
@ 0 "" 2
	.loc 2 1604 0
	.arm
	.syntax divided
	ldr	r3, [sp, #452]
	add	r3, r3, #1
	str	r3, [sp, #452]
.L236:
	.loc 2 1601 0
	ldr	r2, [sp, #452]
	ldr	r3, [sp, #456]
	cmp	r2, r3
	bcc	.L237
	.loc 2 1607 0
	mov	r3, #1
	str	r3, [sp, #448]
	.loc 2 1608 0
	b	.L238
.L245:
	.loc 2 1609 0
	.syntax divided
@ 1609 "objectfollower.c" 1
	1:
        .section .wcet_annot
        .long 1b
        .long 1
        .long 5
                        .text
@ 0 "" 2
	.loc 2 1610 0
	.arm
	.syntax divided
	ldr	r3, [sp, #448]
	cmp	r3, #10
	beq	.L239
	.loc 2 1611 0
	mov	r3, #1
	str	r3, [sp, #160]
	.loc 2 1612 0
	ldr	r3, [sp, #160]
	cmp	r3, #0
	blt	.L324
	.loc 2 1613 0
	ldr	r3, [sp, #160]
	cmp	r3, #127
	bgt	.L324
	.loc 2 1614 0
	ldr	r3, .L329+32
	ldr	r3, [r3]
	cmp	r3, #0
	blt	.L324
	.loc 2 1615 0
	ldr	r3, .L329+32
	ldr	r3, [r3]
	cmp	r3, #15
	bgt	.L324
	.loc 2 1616 0
	ldr	r3, .L329+36
	ldr	r3, [r3]
	cmp	r3, #0
	blt	.L324
	.loc 2 1617 0
	ldr	r3, .L329+36
	ldr	r3, [r3]
	cmp	r3, #7
	bgt	.L324
	.loc 2 1620 0
	mov	r3, #0
	str	r3, [sp, #368]
	.loc 2 1621 0
	b	.L241
.L242:
	.loc 2 1622 0
	.syntax divided
@ 1622 "objectfollower.c" 1
	1:
        .section .wcet_annot
        .long 1b
        .long 1
        .long 5
                        .text
@ 0 "" 2
	.loc 2 1626 0
	.arm
	.syntax divided
	ldr	r3, [sp, #368]
	add	r3, r3, #1
	str	r3, [sp, #368]
.L241:
	.loc 2 1621 0
	ldr	r3, [sp, #368]
	cmp	r3, #4
	ble	.L242
.L324:
	.loc 2 1634 0
	mov	r0, r0	@ nop
.L243:
	.loc 2 1636 0
	ldr	r3, .L329+32
	ldr	r3, [r3]
	add	r3, r3, #1
	ldr	r2, .L329+32
	str	r3, [r2]
	b	.L244
.L239:
	.loc 2 1638 0
	ldr	r3, .L329+32
	mov	r2, #0
	str	r2, [r3]
	.loc 2 1639 0
	ldr	r3, .L329+36
	ldr	r3, [r3]
	add	r3, r3, #1
	ldr	r2, .L329+36
	str	r3, [r2]
.L244:
	.loc 2 1641 0
	ldr	r3, [sp, #448]
	add	r3, r3, #1
	str	r3, [sp, #448]
.L238:
	.loc 2 1608 0
	ldr	r3, [sp, #448]
	cmp	r3, #0
	bne	.L245
	.loc 2 1643 0
	mov	r0, r0	@ nop
	.loc 2 1645 0
	mov	r0, r0	@ nop
	.loc 2 1647 0
	mov	r0, r0	@ nop
.L246:
.L247:
.L248:
	.loc 2 1649 0
	ldrb	r3, [sp, #351]
	strb	r3, [sp, #159]
	.loc 2 1650 0
	ldrb	r3, [sp, #351]
	add	r3, r3, #1
	strb	r3, [sp, #351]
	.loc 2 1651 0
	mov	r3, #0
	str	r3, [sp, #152]
	.loc 2 1652 0
	ldrb	r3, [sp, #159]	@ zero_extendqisi2
	str	r3, [sp, #148]
	.loc 2 1653 0
	ldr	r2, .L329+32
	ldr	r3, [sp, #152]
	str	r3, [r2]
	.loc 2 1654 0
	ldr	r2, .L329+36
	ldr	r3, [sp, #148]
	str	r3, [r2]
	.loc 2 1655 0
	mov	r0, r0	@ nop
.L249:
	.loc 2 1658 0
	mov	r3, #11
	str	r3, [sp, #580]
	.loc 2 1659 0
	b	.L250
.L257:
	.loc 2 1660 0
	.syntax divided
@ 1660 "objectfollower.c" 1
	1:
        .section .wcet_annot
        .long 1b
        .long 1
        .long 11
                        .text
@ 0 "" 2
	.loc 2 1661 0
	.arm
	.syntax divided
	ldr	r3, [sp, #580]
	cmp	r3, #10
	beq	.L251
	.loc 2 1662 0
	mov	r3, #1
	str	r3, [sp, #144]
	.loc 2 1663 0
	ldr	r3, [sp, #144]
	cmp	r3, #0
	blt	.L325
	.loc 2 1664 0
	ldr	r3, [sp, #144]
	cmp	r3, #127
	bgt	.L325
	.loc 2 1665 0
	ldr	r3, .L329+32
	ldr	r3, [r3]
	cmp	r3, #0
	blt	.L325
	.loc 2 1666 0
	ldr	r3, .L329+32
	ldr	r3, [r3]
	cmp	r3, #15
	bgt	.L325
	.loc 2 1667 0
	ldr	r3, .L329+36
	ldr	r3, [r3]
	cmp	r3, #0
	blt	.L325
	.loc 2 1668 0
	ldr	r3, .L329+36
	ldr	r3, [r3]
	cmp	r3, #7
	bgt	.L325
	.loc 2 1671 0
	mov	r3, #0
	str	r3, [sp, #364]
	.loc 2 1672 0
	b	.L253
.L254:
	.loc 2 1673 0
	.syntax divided
@ 1673 "objectfollower.c" 1
	1:
        .section .wcet_annot
        .long 1b
        .long 1
        .long 5
                        .text
@ 0 "" 2
	.loc 2 1677 0
	.arm
	.syntax divided
	ldr	r3, [sp, #364]
	add	r3, r3, #1
	str	r3, [sp, #364]
.L253:
	.loc 2 1672 0
	ldr	r3, [sp, #364]
	cmp	r3, #4
	ble	.L254
.L325:
	.loc 2 1685 0
	mov	r0, r0	@ nop
.L255:
	.loc 2 1687 0
	ldr	r3, .L329+32
	ldr	r3, [r3]
	add	r3, r3, #1
	ldr	r2, .L329+32
	str	r3, [r2]
	b	.L256
.L251:
	.loc 2 1689 0
	ldr	r3, .L329+32
	mov	r2, #0
	str	r2, [r3]
	.loc 2 1690 0
	ldr	r3, .L329+36
	ldr	r3, [r3]
	add	r3, r3, #1
	ldr	r2, .L329+36
	str	r3, [r2]
.L256:
	.loc 2 1692 0
	ldr	r3, [sp, #580]
	add	r3, r3, #1
	str	r3, [sp, #580]
.L250:
	.loc 2 1659 0
	ldr	r3, [sp, #580]
	cmp	r3, #0
	bne	.L257
	.loc 2 1694 0
	mov	r0, r0	@ nop
.L258:
	.loc 2 1696 0
	ldr	r3, .L329+24
	ldr	r3, [r3]
	str	r3, [sp, #140]
	.loc 2 1697 0
	mov	r3, #4
	str	r3, [sp, #136]
	.loc 2 1698 0
	ldr	r3, [sp, #140]
	cmp	r3, #0
	bge	.L259
	.loc 2 1699 0
	ldr	r3, [sp, #140]
	rsb	r3, r3, #0
	str	r3, [sp, #548]
	b	.L260
.L259:
	.loc 2 1701 0
	ldr	r3, [sp, #140]
	str	r3, [sp, #548]
.L260:
	.loc 2 1703 0
	ldr	r3, [sp, #548]
	str	r3, [sp, #444]
	.loc 2 1704 0
	ldr	r3, [sp, #136]
	str	r3, [sp, #440]
	.loc 2 1705 0
	ldr	r3, [sp, #140]
	mov	r3, r3, lsr #31
	and	r3, r3, #255
	str	r3, [sp, #132]
	.loc 2 1707 0
	mov	r3, #0
	str	r3, [sp, #436]
	.loc 2 1709 0
	ldr	r3, [sp, #440]
	cmp	r3, #11
	bls	.L262
	.loc 2 1710 0
	mov	r3, #11
	str	r3, [sp, #440]
	.loc 2 1712 0
	b	.L262
.L263:
	.loc 2 1713 0
	.syntax divided
@ 1713 "objectfollower.c" 1
	1:
        .section .wcet_annot
        .long 1b
        .long 1
        .long 5
                        .text
@ 0 "" 2
	.loc 2 1715 0
	.arm
	.syntax divided
	ldr	r3, [sp, #436]
	add	r3, r3, #1
	str	r3, [sp, #436]
	.loc 2 1717 0
	mov	r3, #1
	str	r3, [sp, #444]
.L262:
	.loc 2 1712 0
	ldr	r3, [sp, #444]
	cmp	r3, #0
	bne	.L263
	.loc 2 1719 0
	ldr	r3, [sp, #436]
	cmp	r3, #0
	bne	.L264
	.loc 2 1721 0
	ldr	r3, [sp, #436]
	add	r3, r3, #1
	str	r3, [sp, #436]
.L264:
	.loc 2 1724 0
	ldr	r3, [sp, #132]
	cmp	r3, #0
	beq	.L266
	.loc 2 1726 0
	ldr	r3, [sp, #436]
	add	r3, r3, #1
	str	r3, [sp, #436]
	.loc 2 1729 0
	b	.L266
.L267:
	.loc 2 1730 0
	.syntax divided
@ 1730 "objectfollower.c" 1
	1:
        .section .wcet_annot
        .long 1b
        .long 1
        .long 5
                        .text
@ 0 "" 2
	.loc 2 1732 0
	.arm
	.syntax divided
	ldr	r3, [sp, #436]
	add	r3, r3, #1
	str	r3, [sp, #436]
.L266:
	.loc 2 1729 0
	ldr	r2, [sp, #436]
	ldr	r3, [sp, #440]
	cmp	r2, r3
	bcc	.L267
	.loc 2 1735 0
	mov	r3, #5
	str	r3, [sp, #432]
	.loc 2 1736 0
	b	.L268
.L275:
	.loc 2 1737 0
	.syntax divided
@ 1737 "objectfollower.c" 1
	1:
        .section .wcet_annot
        .long 1b
        .long 1
        .long 5
                        .text
@ 0 "" 2
	.loc 2 1738 0
	.arm
	.syntax divided
	ldr	r3, [sp, #432]
	cmp	r3, #10
	beq	.L269
	.loc 2 1739 0
	mov	r3, #1
	str	r3, [sp, #128]
	.loc 2 1740 0
	ldr	r3, [sp, #128]
	cmp	r3, #0
	blt	.L326
	.loc 2 1741 0
	ldr	r3, [sp, #128]
	cmp	r3, #127
	bgt	.L326
	.loc 2 1742 0
	ldr	r3, .L329+32
	ldr	r3, [r3]
	cmp	r3, #0
	blt	.L326
	.loc 2 1743 0
	ldr	r3, .L329+32
	ldr	r3, [r3]
	cmp	r3, #15
	bgt	.L326
	.loc 2 1744 0
	ldr	r3, .L329+36
	ldr	r3, [r3]
	cmp	r3, #0
	blt	.L326
	.loc 2 1745 0
	ldr	r3, .L329+36
	ldr	r3, [r3]
	cmp	r3, #7
	bgt	.L326
	.loc 2 1748 0
	mov	r3, #0
	str	r3, [sp, #360]
	.loc 2 1749 0
	b	.L271
.L272:
	.loc 2 1750 0
	.syntax divided
@ 1750 "objectfollower.c" 1
	1:
        .section .wcet_annot
        .long 1b
        .long 1
        .long 5
                        .text
@ 0 "" 2
	.loc 2 1754 0
	.arm
	.syntax divided
	ldr	r3, [sp, #360]
	add	r3, r3, #1
	str	r3, [sp, #360]
.L271:
	.loc 2 1749 0
	ldr	r3, [sp, #360]
	cmp	r3, #4
	ble	.L272
.L326:
	.loc 2 1762 0
	mov	r0, r0	@ nop
.L273:
	.loc 2 1764 0
	ldr	r3, .L329+32
	ldr	r3, [r3]
	add	r3, r3, #1
	ldr	r2, .L329+32
	str	r3, [r2]
	b	.L274
.L269:
	.loc 2 1766 0
	ldr	r3, .L329+32
	mov	r2, #0
	str	r2, [r3]
	.loc 2 1767 0
	ldr	r3, .L329+36
	ldr	r3, [r3]
	add	r3, r3, #1
	ldr	r2, .L329+36
	str	r3, [r2]
.L274:
	.loc 2 1769 0
	ldr	r3, [sp, #432]
	add	r3, r3, #1
	str	r3, [sp, #432]
.L268:
	.loc 2 1736 0
	ldr	r3, [sp, #432]
	cmp	r3, #0
	bne	.L275
	.loc 2 1771 0
	mov	r0, r0	@ nop
	.loc 2 1773 0
	mov	r0, r0	@ nop
	.loc 2 1775 0
	mov	r0, r0	@ nop
.L276:
.L277:
.L278:
	.loc 2 1777 0
	ldrb	r3, [sp, #351]
	strb	r3, [sp, #127]
	.loc 2 1778 0
	ldrb	r3, [sp, #351]
	add	r3, r3, #1
	strb	r3, [sp, #351]
	.loc 2 1779 0
	mov	r3, #0
	str	r3, [sp, #120]
	.loc 2 1780 0
	ldrb	r3, [sp, #127]	@ zero_extendqisi2
	str	r3, [sp, #116]
	.loc 2 1781 0
	ldr	r2, .L329+32
	ldr	r3, [sp, #120]
	str	r3, [r2]
	.loc 2 1782 0
	ldr	r2, .L329+36
	ldr	r3, [sp, #116]
	str	r3, [r2]
	.loc 2 1783 0
	mov	r0, r0	@ nop
.L279:
	.loc 2 1786 0
	mov	r3, #12
	str	r3, [sp, #576]
	.loc 2 1787 0
	b	.L280
.L287:
	.loc 2 1788 0
	.syntax divided
@ 1788 "objectfollower.c" 1
	1:
        .section .wcet_annot
        .long 1b
        .long 1
        .long 12
                        .text
@ 0 "" 2
	.loc 2 1789 0
	.arm
	.syntax divided
	ldr	r3, [sp, #576]
	cmp	r3, #10
	beq	.L281
	.loc 2 1790 0
	mov	r3, #1
	str	r3, [sp, #112]
	.loc 2 1791 0
	ldr	r3, [sp, #112]
	cmp	r3, #0
	blt	.L327
	.loc 2 1792 0
	ldr	r3, [sp, #112]
	cmp	r3, #127
	bgt	.L327
	.loc 2 1793 0
	ldr	r3, .L329+32
	ldr	r3, [r3]
	cmp	r3, #0
	blt	.L327
	.loc 2 1794 0
	ldr	r3, .L329+32
	ldr	r3, [r3]
	cmp	r3, #15
	bgt	.L327
	.loc 2 1795 0
	ldr	r3, .L329+36
	ldr	r3, [r3]
	cmp	r3, #0
	blt	.L327
	.loc 2 1796 0
	ldr	r3, .L329+36
	ldr	r3, [r3]
	cmp	r3, #7
	bgt	.L327
	.loc 2 1799 0
	mov	r3, #0
	str	r3, [sp, #356]
	.loc 2 1800 0
	b	.L283
.L284:
	.loc 2 1801 0
	.syntax divided
@ 1801 "objectfollower.c" 1
	1:
        .section .wcet_annot
        .long 1b
        .long 1
        .long 5
                        .text
@ 0 "" 2
	.loc 2 1805 0
	.arm
	.syntax divided
	ldr	r3, [sp, #356]
	add	r3, r3, #1
	str	r3, [sp, #356]
.L283:
	.loc 2 1800 0
	ldr	r3, [sp, #356]
	cmp	r3, #4
	ble	.L284
.L327:
	.loc 2 1813 0
	mov	r0, r0	@ nop
.L285:
	.loc 2 1815 0
	ldr	r3, .L329+32
	ldr	r3, [r3]
	add	r3, r3, #1
	ldr	r2, .L329+32
	str	r3, [r2]
	b	.L286
.L281:
	.loc 2 1817 0
	ldr	r3, .L329+32
	mov	r2, #0
	str	r2, [r3]
	.loc 2 1818 0
	ldr	r3, .L329+36
	ldr	r3, [r3]
	add	r3, r3, #1
	ldr	r2, .L329+36
	str	r3, [r2]
.L286:
	.loc 2 1820 0
	ldr	r3, [sp, #576]
	add	r3, r3, #1
	str	r3, [sp, #576]
.L280:
	.loc 2 1787 0
	ldr	r3, [sp, #576]
	cmp	r3, #0
	bne	.L287
	.loc 2 1822 0
	mov	r0, r0	@ nop
.L288:
	.loc 2 1824 0
	ldr	r3, .L329+28
	ldr	r3, [r3]
	str	r3, [sp, #108]
	.loc 2 1825 0
	mov	r3, #4
	str	r3, [sp, #104]
	.loc 2 1826 0
	ldr	r3, [sp, #108]
	cmp	r3, #0
	bge	.L289
	.loc 2 1827 0
	ldr	r3, [sp, #108]
	rsb	r3, r3, #0
	str	r3, [sp, #544]
	b	.L290
.L289:
	.loc 2 1829 0
	ldr	r3, [sp, #108]
	str	r3, [sp, #544]
.L290:
	.loc 2 1831 0
	ldr	r3, [sp, #544]
	str	r3, [sp, #428]
	.loc 2 1832 0
	ldr	r3, [sp, #104]
	str	r3, [sp, #424]
	.loc 2 1833 0
	ldr	r3, [sp, #108]
	mov	r3, r3, lsr #31
	and	r3, r3, #255
	str	r3, [sp, #100]
	.loc 2 1835 0
	mov	r3, #0
	str	r3, [sp, #420]
	.loc 2 1837 0
	ldr	r3, [sp, #424]
	cmp	r3, #11
	bls	.L292
	.loc 2 1838 0
	mov	r3, #11
	str	r3, [sp, #424]
	.loc 2 1840 0
	b	.L292
.L293:
	.loc 2 1841 0
	.syntax divided
@ 1841 "objectfollower.c" 1
	1:
        .section .wcet_annot
        .long 1b
        .long 1
        .long 5
                        .text
@ 0 "" 2
	.loc 2 1843 0
	.arm
	.syntax divided
	ldr	r3, [sp, #420]
	add	r3, r3, #1
	str	r3, [sp, #420]
	.loc 2 1845 0
	mov	r3, #1
	str	r3, [sp, #428]
.L292:
	.loc 2 1840 0
	ldr	r3, [sp, #428]
	cmp	r3, #0
	bne	.L293
	.loc 2 1847 0
	ldr	r3, [sp, #420]
	cmp	r3, #0
	bne	.L294
	.loc 2 1849 0
	ldr	r3, [sp, #420]
	add	r3, r3, #1
	str	r3, [sp, #420]
.L294:
	.loc 2 1852 0
	ldr	r3, [sp, #100]
	cmp	r3, #0
	beq	.L296
	.loc 2 1854 0
	ldr	r3, [sp, #420]
	add	r3, r3, #1
	str	r3, [sp, #420]
	.loc 2 1857 0
	b	.L296
.L297:
	.loc 2 1858 0
	.syntax divided
@ 1858 "objectfollower.c" 1
	1:
        .section .wcet_annot
        .long 1b
        .long 1
        .long 5
                        .text
@ 0 "" 2
	.loc 2 1860 0
	.arm
	.syntax divided
	ldr	r3, [sp, #420]
	add	r3, r3, #1
	str	r3, [sp, #420]
.L296:
	.loc 2 1857 0
	ldr	r2, [sp, #420]
	ldr	r3, [sp, #424]
	cmp	r2, r3
	bcc	.L297
	.loc 2 1863 0
	mov	r3, #1
	str	r3, [sp, #416]
	.loc 2 1864 0
	b	.L298
.L305:
	.loc 2 1865 0
	.syntax divided
@ 1865 "objectfollower.c" 1
	1:
        .section .wcet_annot
        .long 1b
        .long 1
        .long 5
                        .text
@ 0 "" 2
	.loc 2 1866 0
	.arm
	.syntax divided
	ldr	r3, [sp, #416]
	cmp	r3, #10
	beq	.L299
	.loc 2 1867 0
	mov	r3, #1
	str	r3, [sp, #96]
	.loc 2 1868 0
	ldr	r3, [sp, #96]
	cmp	r3, #0
	blt	.L328
	.loc 2 1869 0
	ldr	r3, [sp, #96]
	cmp	r3, #127
	bgt	.L328
	.loc 2 1870 0
	ldr	r3, .L329+32
	ldr	r3, [r3]
	cmp	r3, #0
	blt	.L328
	.loc 2 1871 0
	ldr	r3, .L329+32
	ldr	r3, [r3]
	cmp	r3, #15
	bgt	.L328
	.loc 2 1872 0
	ldr	r3, .L329+36
	ldr	r3, [r3]
	cmp	r3, #0
	blt	.L328
	.loc 2 1873 0
	ldr	r3, .L329+36
	ldr	r3, [r3]
	cmp	r3, #7
	bgt	.L328
	.loc 2 1876 0
	mov	r3, #0
	str	r3, [sp, #352]
	.loc 2 1877 0
	b	.L301
.L302:
	.loc 2 1878 0
	.syntax divided
@ 1878 "objectfollower.c" 1
	1:
        .section .wcet_annot
        .long 1b
        .long 1
        .long 5
                        .text
@ 0 "" 2
	.loc 2 1882 0
	.arm
	.syntax divided
	ldr	r3, [sp, #352]
	add	r3, r3, #1
	str	r3, [sp, #352]
.L301:
	.loc 2 1877 0
	ldr	r3, [sp, #352]
	cmp	r3, #4
	ble	.L302
.L328:
	.loc 2 1890 0
	mov	r0, r0	@ nop
.L303:
	.loc 2 1892 0
	ldr	r3, .L329+32
	ldr	r3, [r3]
	add	r3, r3, #1
	ldr	r2, .L329+32
	str	r3, [r2]
	b	.L304
.L299:
	.loc 2 1894 0
	ldr	r3, .L329+32
	mov	r2, #0
	str	r2, [r3]
	.loc 2 1895 0
	ldr	r3, .L329+36
	ldr	r3, [r3]
	add	r3, r3, #1
	ldr	r2, .L329+36
	str	r3, [r2]
.L304:
	.loc 2 1897 0
	ldr	r3, [sp, #416]
	add	r3, r3, #1
	str	r3, [sp, #416]
.L298:
	.loc 2 1864 0
	ldr	r3, [sp, #416]
	cmp	r3, #0
	bne	.L305
	.loc 2 1899 0
	mov	r0, r0	@ nop
	.loc 2 1901 0
	mov	r0, r0	@ nop
	.loc 2 1903 0
	mov	r0, r0	@ nop
.L306:
.L307:
.L308:
	.loc 2 1905 0
	ldr	r3, .L329+40
	mov	r2, #0
	str	r2, [r3]
	.loc 2 1907 0
	mov	r0, r0	@ nop
	.loc 2 1909 0
	mov	r0, r0	@ nop
	.loc 2 1911 0
	mov	r0, r0	@ nop
	.loc 2 1914 0
	mov	r0, r0	@ nop
	.loc 2 1916 0
	add	sp, sp, #608
	.cfi_def_cfa_offset 0
	@ sp needed
	bx	lr
.L309:
.L310:
.L311:
	.cfi_endproc
.LFE29:
	.size	TaskMainDisplayTask, .-TaskMainDisplayTask
	.align	2
	.global	TaskMainAcquisitionTask_blk
	.type	TaskMainAcquisitionTask_blk, %function
TaskMainAcquisitionTask_blk:
.LFB30:
	.loc 2 1917 0
	.cfi_startproc
	@ Function supports interworking.
	@ args = 0, pretend = 0, frame = 8
	@ frame_needed = 0, uses_anonymous_args = 0
	@ link register save eliminated.
	sub	sp, sp, #8
	.cfi_def_cfa_offset 8
	.loc 2 1920 0
	ldr	r2, .L332
	ldr	r3, [sp, #4]
	str	r3, [r2]
	.loc 2 1921 0
	ldr	r2, .L332
	ldr	r3, [sp]
	str	r3, [r2, #4]
	.loc 2 1922 0
	mov	r0, r0	@ nop
	add	sp, sp, #8
	.cfi_def_cfa_offset 0
	@ sp needed
	bx	lr
.L333:
	.align	2
.L332:
	.word	objData
	.cfi_endproc
.LFE30:
	.size	TaskMainAcquisitionTask_blk, .-TaskMainAcquisitionTask_blk
	.align	2
	.global	TaskMainControlTask_blk
	.type	TaskMainControlTask_blk, %function
TaskMainControlTask_blk:
.LFB31:
	.loc 2 1924 0
	.cfi_startproc
	@ Function supports interworking.
	@ args = 0, pretend = 0, frame = 8
	@ frame_needed = 0, uses_anonymous_args = 0
	@ link register save eliminated.
	sub	sp, sp, #8
	.cfi_def_cfa_offset 8
	.loc 2 1926 0
	ldr	r2, .L335
	mov	r3, sp
	ldmia	r2, {r0, r1}
	stmia	r3, {r0, r1}
	.loc 2 1927 0
	mov	r0, r0	@ nop
	add	sp, sp, #8
	.cfi_def_cfa_offset 0
	@ sp needed
	bx	lr
.L336:
	.align	2
.L335:
	.word	objData
	.cfi_endproc
.LFE31:
	.size	TaskMainControlTask_blk, .-TaskMainControlTask_blk
	.align	2
	.global	main
	.type	main, %function
main:
.LFB32:
	.loc 2 1932 0
	.cfi_startproc
	@ Function supports interworking.
	@ args = 0, pretend = 0, frame = 0
	@ frame_needed = 0, uses_anonymous_args = 0
	stmfd	sp!, {r4, lr}
	.cfi_def_cfa_offset 8
	.cfi_offset 4, -8
	.cfi_offset 14, -4
	.loc 2 1937 0
	bl	TaskMainControlTask_blk
	.loc 2 1947 0
	mov	r0, r0	@ nop
	.loc 2 1949 0
	ldmfd	sp!, {r4, lr}
	.cfi_restore 14
	.cfi_restore 4
	.cfi_def_cfa_offset 0
	bx	lr
	.cfi_endproc
.LFE32:
	.size	main, .-main
.Letext0: