	.cpu arm7tdmi
	.fpu softvfp
	.eabi_attribute 20, 1
	.eabi_attribute 21, 1
	.eabi_attribute 23, 3
	.eabi_attribute 24, 1
	.eabi_attribute 25, 1
	.eabi_attribute 26, 1
	.eabi_attribute 30, 6
	.eabi_attribute 34, 0
	.eabi_attribute 18, 4
	.arm
	.syntax divided
	.file	"car.c"
	.text
.Ltext0:
	.cfi_sections	.debug_frame
	.align	2
	.global	__aeabi_idiv
	.type	__aeabi_idiv, %function
__aeabi_idiv:
.LFB0:
	.file 1 "../ARMlib.h"
	.loc 1 29 0
	.cfi_startproc
	@ Function supports interworking.
	@ args = 0, pretend = 0, frame = 0
	@ frame_needed = 0, uses_anonymous_args = 0
	@ link register save eliminated.
	.loc 1 29 0
	mov	r0, r0	@ nop
	bx	lr
	.cfi_endproc
.LFE0:
	.size	__aeabi_idiv, .-__aeabi_idiv
	.align	2
	.global	__aeabi_i2d
	.type	__aeabi_i2d, %function
__aeabi_i2d:
.LFB1:
	.loc 1 30 0
	.cfi_startproc
	@ Function supports interworking.
	@ args = 0, pretend = 0, frame = 0
	@ frame_needed = 0, uses_anonymous_args = 0
	@ link register save eliminated.
	.loc 1 30 0
	mov	r0, r0	@ nop
	bx	lr
	.cfi_endproc
.LFE1:
	.size	__aeabi_i2d, .-__aeabi_i2d
	.align	2
	.global	__aeabi_uidivmod
	.type	__aeabi_uidivmod, %function
__aeabi_uidivmod:
.LFB2:
	.loc 1 31 0
	.cfi_startproc
	@ Function supports interworking.
	@ args = 0, pretend = 0, frame = 0
	@ frame_needed = 0, uses_anonymous_args = 0
	@ link register save eliminated.
	.loc 1 31 0
	mov	r0, r0	@ nop
	bx	lr
	.cfi_endproc
.LFE2:
	.size	__aeabi_uidivmod, .-__aeabi_uidivmod
	.align	2
	.global	__aeabi_fcmpge
	.type	__aeabi_fcmpge, %function
__aeabi_fcmpge:
.LFB3:
	.loc 1 32 0
	.cfi_startproc
	@ Function supports interworking.
	@ args = 0, pretend = 0, frame = 0
	@ frame_needed = 0, uses_anonymous_args = 0
	@ link register save eliminated.
	.loc 1 32 0
	mov	r0, r0	@ nop
	bx	lr
	.cfi_endproc
.LFE3:
	.size	__aeabi_fcmpge, .-__aeabi_fcmpge
	.align	2
	.global	__aeabi_i2f
	.type	__aeabi_i2f, %function
__aeabi_i2f:
.LFB4:
	.loc 1 33 0
	.cfi_startproc
	@ Function supports interworking.
	@ args = 0, pretend = 0, frame = 0
	@ frame_needed = 0, uses_anonymous_args = 0
	@ link register save eliminated.
	.loc 1 33 0
	mov	r0, r0	@ nop
	bx	lr
	.cfi_endproc
.LFE4:
	.size	__aeabi_i2f, .-__aeabi_i2f
	.align	2
	.global	__aeabi_ddiv
	.type	__aeabi_ddiv, %function
__aeabi_ddiv:
.LFB5:
	.loc 1 37 0
	.cfi_startproc
	@ Function supports interworking.
	@ args = 0, pretend = 0, frame = 0
	@ frame_needed = 0, uses_anonymous_args = 0
	@ link register save eliminated.
	.loc 1 37 0
	mov	r0, r0	@ nop
	bx	lr
	.cfi_endproc
.LFE5:
	.size	__aeabi_ddiv, .-__aeabi_ddiv
	.align	2
	.global	__aeabi_dsub
	.type	__aeabi_dsub, %function
__aeabi_dsub:
.LFB6:
	.loc 1 38 0
	.cfi_startproc
	@ Function supports interworking.
	@ args = 0, pretend = 0, frame = 0
	@ frame_needed = 0, uses_anonymous_args = 0
	@ link register save eliminated.
	.loc 1 38 0
	mov	r0, r0	@ nop
	bx	lr
	.cfi_endproc
.LFE6:
	.size	__aeabi_dsub, .-__aeabi_dsub
	.align	2
	.global	__aeabi_dmul
	.type	__aeabi_dmul, %function
__aeabi_dmul:
.LFB7:
	.loc 1 39 0
	.cfi_startproc
	@ Function supports interworking.
	@ args = 0, pretend = 0, frame = 0
	@ frame_needed = 0, uses_anonymous_args = 0
	@ link register save eliminated.
	.loc 1 39 0
	mov	r0, r0	@ nop
	bx	lr
	.cfi_endproc
.LFE7:
	.size	__aeabi_dmul, .-__aeabi_dmul
	.align	2
	.global	__aeabi_dcmpge
	.type	__aeabi_dcmpge, %function
__aeabi_dcmpge:
.LFB8:
	.loc 1 40 0
	.cfi_startproc
	@ Function supports interworking.
	@ args = 0, pretend = 0, frame = 0
	@ frame_needed = 0, uses_anonymous_args = 0
	@ link register save eliminated.
	.loc 1 40 0
	mov	r0, r0	@ nop
	bx	lr
	.cfi_endproc
.LFE8:
	.size	__aeabi_dcmpge, .-__aeabi_dcmpge
	.align	2
	.global	__aeabi_dcmpeq
	.type	__aeabi_dcmpeq, %function
__aeabi_dcmpeq:
.LFB9:
	.loc 1 41 0
	.cfi_startproc
	@ Function supports interworking.
	@ args = 0, pretend = 0, frame = 0
	@ frame_needed = 0, uses_anonymous_args = 0
	@ link register save eliminated.
	.loc 1 41 0
	mov	r0, r0	@ nop
	bx	lr
	.cfi_endproc
.LFE9:
	.size	__aeabi_dcmpeq, .-__aeabi_dcmpeq
	.align	2
	.global	__aeabi_dcmpgt
	.type	__aeabi_dcmpgt, %function
__aeabi_dcmpgt:
.LFB10:
	.loc 1 42 0
	.cfi_startproc
	@ Function supports interworking.
	@ args = 0, pretend = 0, frame = 0
	@ frame_needed = 0, uses_anonymous_args = 0
	@ link register save eliminated.
	.loc 1 42 0
	mov	r0, r0	@ nop
	bx	lr
	.cfi_endproc
.LFE10:
	.size	__aeabi_dcmpgt, .-__aeabi_dcmpgt
	.align	2
	.global	__aeabi_dcmple
	.type	__aeabi_dcmple, %function
__aeabi_dcmple:
.LFB11:
	.loc 1 43 0
	.cfi_startproc
	@ Function supports interworking.
	@ args = 0, pretend = 0, frame = 0
	@ frame_needed = 0, uses_anonymous_args = 0
	@ link register save eliminated.
	.loc 1 43 0
	mov	r0, r0	@ nop
	bx	lr
	.cfi_endproc
.LFE11:
	.size	__aeabi_dcmple, .-__aeabi_dcmple
	.align	2
	.global	__aeabi_d2f
	.type	__aeabi_d2f, %function
__aeabi_d2f:
.LFB12:
	.loc 1 44 0
	.cfi_startproc
	@ Function supports interworking.
	@ args = 0, pretend = 0, frame = 0
	@ frame_needed = 0, uses_anonymous_args = 0
	@ link register save eliminated.
	.loc 1 44 0
	mov	r0, r0	@ nop
	bx	lr
	.cfi_endproc
.LFE12:
	.size	__aeabi_d2f, .-__aeabi_d2f
	.align	2
	.global	__aeabi_dadd
	.type	__aeabi_dadd, %function
__aeabi_dadd:
.LFB13:
	.loc 1 45 0
	.cfi_startproc
	@ Function supports interworking.
	@ args = 0, pretend = 0, frame = 0
	@ frame_needed = 0, uses_anonymous_args = 0
	@ link register save eliminated.
	.loc 1 45 0
	mov	r0, r0	@ nop
	bx	lr
	.cfi_endproc
.LFE13:
	.size	__aeabi_dadd, .-__aeabi_dadd
	.align	2
	.global	__aeabi_d2iz
	.type	__aeabi_d2iz, %function
__aeabi_d2iz:
.LFB14:
	.loc 1 46 0
	.cfi_startproc
	@ Function supports interworking.
	@ args = 0, pretend = 0, frame = 0
	@ frame_needed = 0, uses_anonymous_args = 0
	@ link register save eliminated.
	.loc 1 46 0
	mov	r0, r0	@ nop
	bx	lr
	.cfi_endproc
.LFE14:
	.size	__aeabi_d2iz, .-__aeabi_d2iz
	.align	2
	.global	__aeabi_fcmplt
	.type	__aeabi_fcmplt, %function
__aeabi_fcmplt:
.LFB15:
	.loc 1 49 0
	.cfi_startproc
	@ Function supports interworking.
	@ args = 0, pretend = 0, frame = 0
	@ frame_needed = 0, uses_anonymous_args = 0
	@ link register save eliminated.
	.loc 1 49 0
	mov	r0, r0	@ nop
	bx	lr
	.cfi_endproc
.LFE15:
	.size	__aeabi_fcmplt, .-__aeabi_fcmplt
	.align	2
	.global	__aeabi_fcmpgt
	.type	__aeabi_fcmpgt, %function
__aeabi_fcmpgt:
.LFB16:
	.loc 1 50 0
	.cfi_startproc
	@ Function supports interworking.
	@ args = 0, pretend = 0, frame = 0
	@ frame_needed = 0, uses_anonymous_args = 0
	@ link register save eliminated.
	.loc 1 50 0
	mov	r0, r0	@ nop
	bx	lr
	.cfi_endproc
.LFE16:
	.size	__aeabi_fcmpgt, .-__aeabi_fcmpgt
	.align	2
	.global	__aeabi_fdiv
	.type	__aeabi_fdiv, %function
__aeabi_fdiv:
.LFB17:
	.loc 1 51 0
	.cfi_startproc
	@ Function supports interworking.
	@ args = 0, pretend = 0, frame = 0
	@ frame_needed = 0, uses_anonymous_args = 0
	@ link register save eliminated.
	.loc 1 51 0
	mov	r0, r0	@ nop
	bx	lr
	.cfi_endproc
.LFE17:
	.size	__aeabi_fdiv, .-__aeabi_fdiv
	.align	2
	.global	__aeabi_fcmpeq
	.type	__aeabi_fcmpeq, %function
__aeabi_fcmpeq:
.LFB18:
	.loc 1 52 0
	.cfi_startproc
	@ Function supports interworking.
	@ args = 0, pretend = 0, frame = 0
	@ frame_needed = 0, uses_anonymous_args = 0
	@ link register save eliminated.
	.loc 1 52 0
	mov	r0, r0	@ nop
	bx	lr
	.cfi_endproc
.LFE18:
	.size	__aeabi_fcmpeq, .-__aeabi_fcmpeq
	.align	2
	.global	__aeabi_fmul
	.type	__aeabi_fmul, %function
__aeabi_fmul:
.LFB19:
	.loc 1 53 0
	.cfi_startproc
	@ Function supports interworking.
	@ args = 0, pretend = 0, frame = 0
	@ frame_needed = 0, uses_anonymous_args = 0
	@ link register save eliminated.
	.loc 1 53 0
	mov	r0, r0	@ nop
	bx	lr
	.cfi_endproc
.LFE19:
	.size	__aeabi_fmul, .-__aeabi_fmul
	.align	2
	.global	__aeabi_fsub
	.type	__aeabi_fsub, %function
__aeabi_fsub:
.LFB20:
	.loc 1 54 0
	.cfi_startproc
	@ Function supports interworking.
	@ args = 0, pretend = 0, frame = 0
	@ frame_needed = 0, uses_anonymous_args = 0
	@ link register save eliminated.
	.loc 1 54 0
	mov	r0, r0	@ nop
	bx	lr
	.cfi_endproc
.LFE20:
	.size	__aeabi_fsub, .-__aeabi_fsub
	.align	2
	.global	__aeabi_f2d
	.type	__aeabi_f2d, %function
__aeabi_f2d:
.LFB21:
	.loc 1 55 0
	.cfi_startproc
	@ Function supports interworking.
	@ args = 0, pretend = 0, frame = 0
	@ frame_needed = 0, uses_anonymous_args = 0
	@ link register save eliminated.
	.loc 1 55 0
	mov	r0, r0	@ nop
	bx	lr
	.cfi_endproc
.LFE21:
	.size	__aeabi_f2d, .-__aeabi_f2d
	.align	2
	.global	__aeabi_fadd
	.type	__aeabi_fadd, %function
__aeabi_fadd:
.LFB22:
	.loc 1 56 0
	.cfi_startproc
	@ Function supports interworking.
	@ args = 0, pretend = 0, frame = 0
	@ frame_needed = 0, uses_anonymous_args = 0
	@ link register save eliminated.
	.loc 1 56 0
	mov	r0, r0	@ nop
	bx	lr
	.cfi_endproc
.LFE22:
	.size	__aeabi_fadd, .-__aeabi_fadd
	.align	2
	.global	__aeabi_ui2
	.type	__aeabi_ui2, %function
__aeabi_ui2:
.LFB23:
	.loc 1 59 0
	.cfi_startproc
	@ Function supports interworking.
	@ args = 0, pretend = 0, frame = 0
	@ frame_needed = 0, uses_anonymous_args = 0
	@ link register save eliminated.
	.loc 1 59 0
	mov	r0, r0	@ nop
	bx	lr
	.cfi_endproc
.LFE23:
	.size	__aeabi_ui2, .-__aeabi_ui2
	.align	2
	.global	__aeabi_ui2d
	.type	__aeabi_ui2d, %function
__aeabi_ui2d:
.LFB24:
	.loc 1 60 0
	.cfi_startproc
	@ Function supports interworking.
	@ args = 0, pretend = 0, frame = 0
	@ frame_needed = 0, uses_anonymous_args = 0
	@ link register save eliminated.
	.loc 1 60 0
	mov	r0, r0	@ nop
	bx	lr
	.cfi_endproc
.LFE24:
	.size	__aeabi_ui2d, .-__aeabi_ui2d
	.align	2
	.global	__aeabi_dcmpun
	.type	__aeabi_dcmpun, %function
__aeabi_dcmpun:
.LFB25:
	.loc 1 62 0
	.cfi_startproc
	@ Function supports interworking.
	@ args = 0, pretend = 0, frame = 0
	@ frame_needed = 0, uses_anonymous_args = 0
	@ link register save eliminated.
	.loc 1 62 0
	mov	r0, r0	@ nop
	bx	lr
	.cfi_endproc
.LFE25:
	.size	__aeabi_dcmpun, .-__aeabi_dcmpun
	.align	2
	.global	__aeabi_dcmplt
	.type	__aeabi_dcmplt, %function
__aeabi_dcmplt:
.LFB26:
	.loc 1 63 0
	.cfi_startproc
	@ Function supports interworking.
	@ args = 0, pretend = 0, frame = 0
	@ frame_needed = 0, uses_anonymous_args = 0
	@ link register save eliminated.
	.loc 1 63 0
	mov	r0, r0	@ nop
	bx	lr
	.cfi_endproc
.LFE26:
	.size	__aeabi_dcmplt, .-__aeabi_dcmplt
	.global	displayM_change
	.bss
	.align	2
	.type	displayM_change, %object
	.size	displayM_change, 4
displayM_change:
	.space	4
	.global	dirty_change
	.type	dirty_change, %object
	.size	dirty_change, 1
dirty_change:
	.space	1
	.global	page_change
	.type	page_change, %object
	.size	page_change, 1
page_change:
	.space	1
	.global	data_change
	.align	2
	.type	data_change, %object
	.size	data_change, 4
data_change:
	.space	4
	.global	mode_change
	.data
	.type	mode_change, %object
	.size	mode_change, 1
mode_change:
	.byte	-1
	.comm	display_tick,4,4
	.comm	display_auto_update,4,4
	.global	displayM
	.bss
	.align	2
	.type	displayM, %object
	.size	displayM, 4
displayM:
	.space	4
	.global	dirty
	.type	dirty, %object
	.size	dirty, 1
dirty:
	.space	1
	.global	page
	.type	page, %object
	.size	page, 1
page:
	.space	1
	.global	dataM
	.align	2
	.type	dataM, %object
	.size	dataM, 4
dataM:
	.space	4
	.global	mode
	.data
	.type	mode, %object
	.size	mode, 1
mode:
	.byte	-1
	.bss
	.align	2
display_array:
	.space	904
	.data
	.align	2
	.type	display_buffer, %object
	.size	display_buffer, 4
display_buffer:
	.word	display_array+4
	.section	.rodata
	.align	2
	.type	font, %object
	.size	font, 640
font:
	.byte	62
	.byte	54
	.byte	42
	.byte	54
	.byte	62
	.byte	62
	.byte	85
	.byte	97
	.byte	85
	.byte	62
	.byte	62
	.byte	107
	.byte	95
	.byte	107
	.byte	62
	.byte	12
	.byte	30
	.byte	60
	.byte	30
	.byte	12
	.byte	8
	.byte	28
	.byte	62
	.byte	28
	.byte	8
	.byte	24
	.byte	94
	.byte	126
	.byte	94
	.byte	24
	.byte	24
	.byte	92
	.byte	126
	.byte	92
	.byte	24
	.byte	62
	.byte	54
	.byte	42
	.byte	54
	.byte	62
	.byte	62
	.byte	54
	.byte	42
	.byte	54
	.byte	62
	.byte	62
	.byte	54
	.byte	42
	.byte	54
	.byte	62
	.byte	62
	.byte	54
	.byte	42
	.byte	54
	.byte	62
	.byte	62
	.byte	54
	.byte	42
	.byte	54
	.byte	62
	.byte	62
	.byte	54
	.byte	42
	.byte	54
	.byte	62
	.byte	62
	.byte	54
	.byte	42
	.byte	54
	.byte	62
	.byte	62
	.byte	54
	.byte	42
	.byte	54
	.byte	62
	.byte	62
	.byte	54
	.byte	42
	.byte	54
	.byte	62
	.byte	62
	.byte	54
	.byte	42
	.byte	54
	.byte	62
	.byte	62
	.byte	54
	.byte	42
	.byte	54
	.byte	62
	.byte	62
	.byte	54
	.byte	42
	.byte	54
	.byte	62
	.byte	62
	.byte	54
	.byte	42
	.byte	54
	.byte	62
	.byte	62
	.byte	54
	.byte	42
	.byte	54
	.byte	62
	.byte	62
	.byte	54
	.byte	42
	.byte	54
	.byte	62
	.byte	62
	.byte	54
	.byte	42
	.byte	54
	.byte	62
	.byte	62
	.byte	54
	.byte	42
	.byte	54
	.byte	62
	.byte	62
	.byte	54
	.byte	42
	.byte	54
	.byte	62
	.byte	62
	.byte	54
	.byte	42
	.byte	54
	.byte	62
	.byte	62
	.byte	54
	.byte	42
	.byte	54
	.byte	62
	.byte	62
	.byte	54
	.byte	42
	.byte	54
	.byte	62
	.byte	62
	.byte	54
	.byte	42
	.byte	54
	.byte	62
	.byte	62
	.byte	54
	.byte	42
	.byte	54
	.byte	62
	.byte	62
	.byte	54
	.byte	42
	.byte	54
	.byte	62
	.byte	62
	.byte	54
	.byte	42
	.byte	54
	.byte	62
	.byte	0
	.byte	0
	.byte	0
	.byte	0
	.byte	0
	.byte	0
	.byte	0
	.byte	95
	.byte	0
	.byte	0
	.byte	0
	.byte	7
	.byte	0
	.byte	7
	.byte	0
	.byte	20
	.byte	62
	.byte	20
	.byte	62
	.byte	20
	.byte	4
	.byte	42
	.byte	127
	.byte	42
	.byte	16
	.byte	38
	.byte	22
	.byte	8
	.byte	52
	.byte	50
	.byte	54
	.byte	73
	.byte	89
	.byte	38
	.byte	80
	.byte	0
	.byte	0
	.byte	7
	.byte	0
	.byte	0
	.byte	0
	.byte	28
	.byte	34
	.byte	65
	.byte	0
	.byte	0
	.byte	65
	.byte	34
	.byte	28
	.byte	0
	.byte	42
	.byte	28
	.byte	127
	.byte	28
	.byte	42
	.byte	8
	.byte	8
	.byte	62
	.byte	8
	.byte	8
	.byte	0
	.byte	80
	.byte	48
	.byte	0
	.byte	0
	.byte	8
	.byte	8
	.byte	8
	.byte	8
	.byte	8
	.byte	0
	.byte	96
	.byte	96
	.byte	0
	.byte	0
	.byte	32
	.byte	16
	.byte	8
	.byte	4
	.byte	2
	.byte	62
	.byte	81
	.byte	73
	.byte	69
	.byte	62
	.byte	0
	.byte	66
	.byte	127
	.byte	64
	.byte	0
	.byte	66
	.byte	97
	.byte	81
	.byte	73
	.byte	70
	.byte	33
	.byte	65
	.byte	69
	.byte	75
	.byte	49
	.byte	24
	.byte	20
	.byte	18
	.byte	127
	.byte	16
	.byte	39
	.byte	69
	.byte	69
	.byte	69
	.byte	57
	.byte	60
	.byte	74
	.byte	73
	.byte	73
	.byte	48
	.byte	1
	.byte	1
	.byte	121
	.byte	5
	.byte	3
	.byte	54
	.byte	73
	.byte	73
	.byte	73
	.byte	54
	.byte	6
	.byte	73
	.byte	73
	.byte	41
	.byte	30
	.byte	0
	.byte	54
	.byte	54
	.byte	0
	.byte	0
	.byte	0
	.byte	86
	.byte	54
	.byte	0
	.byte	0
	.byte	8
	.byte	20
	.byte	34
	.byte	65
	.byte	0
	.byte	20
	.byte	20
	.byte	20
	.byte	20
	.byte	20
	.byte	65
	.byte	34
	.byte	20
	.byte	8
	.byte	0
	.byte	2
	.byte	1
	.byte	89
	.byte	5
	.byte	2
	.byte	28
	.byte	42
	.byte	54
	.byte	62
	.byte	12
	.byte	126
	.byte	9
	.byte	9
	.byte	9
	.byte	126
	.byte	127
	.byte	73
	.byte	73
	.byte	73
	.byte	62
	.byte	62
	.byte	65
	.byte	65
	.byte	65
	.byte	34
	.byte	127
	.byte	65
	.byte	65
	.byte	34
	.byte	28
	.byte	127
	.byte	73
	.byte	73
	.byte	73
	.byte	65
	.byte	127
	.byte	9
	.byte	9
	.byte	9
	.byte	1
	.byte	62
	.byte	65
	.byte	65
	.byte	73
	.byte	58
	.byte	127
	.byte	8
	.byte	8
	.byte	8
	.byte	127
	.byte	0
	.byte	65
	.byte	127
	.byte	65
	.byte	0
	.byte	32
	.byte	64
	.byte	65
	.byte	63
	.byte	1
	.byte	127
	.byte	8
	.byte	20
	.byte	34
	.byte	65
	.byte	127
	.byte	64
	.byte	64
	.byte	64
	.byte	64
	.byte	127
	.byte	2
	.byte	4
	.byte	2
	.byte	127
	.byte	127
	.byte	4
	.byte	8
	.byte	16
	.byte	127
	.byte	62
	.byte	65
	.byte	65
	.byte	65
	.byte	62
	.byte	127
	.byte	9
	.byte	9
	.byte	9
	.byte	6
	.byte	62
	.byte	65
	.byte	81
	.byte	33
	.byte	94
	.byte	127
	.byte	9
	.byte	25
	.byte	41
	.byte	70
	.byte	38
	.byte	73
	.byte	73
	.byte	73
	.byte	50
	.byte	1
	.byte	1
	.byte	127
	.byte	1
	.byte	1
	.byte	63
	.byte	64
	.byte	64
	.byte	64
	.byte	63
	.byte	31
	.byte	32
	.byte	64
	.byte	32
	.byte	31
	.byte	127
	.byte	32
	.byte	24
	.byte	32
	.byte	127
	.byte	99
	.byte	20
	.byte	8
	.byte	20
	.byte	99
	.byte	3
	.byte	4
	.byte	120
	.byte	4
	.byte	3
	.byte	97
	.byte	81
	.byte	73
	.byte	69
	.byte	67
	.byte	0
	.byte	127
	.byte	65
	.byte	65
	.byte	0
	.byte	2
	.byte	4
	.byte	8
	.byte	16
	.byte	32
	.byte	0
	.byte	65
	.byte	65
	.byte	127
	.byte	0
	.byte	4
	.byte	2
	.byte	1
	.byte	2
	.byte	4
	.byte	64
	.byte	64
	.byte	64
	.byte	64
	.byte	64
	.byte	0
	.byte	0
	.byte	7
	.byte	0
	.byte	0
	.byte	32
	.byte	84
	.byte	84
	.byte	84
	.byte	120
	.byte	127
	.byte	72
	.byte	68
	.byte	68
	.byte	56
	.byte	48
	.byte	72
	.byte	72
	.byte	72
	.byte	32
	.byte	56
	.byte	68
	.byte	68
	.byte	72
	.byte	127
	.byte	56
	.byte	84
	.byte	84
	.byte	84
	.byte	24
	.byte	8
	.byte	126
	.byte	9
	.byte	9
	.byte	2
	.byte	12
	.byte	82
	.byte	82
	.byte	82
	.byte	62
	.byte	127
	.byte	8
	.byte	4
	.byte	4
	.byte	120
	.byte	0
	.byte	68
	.byte	125
	.byte	64
	.byte	0
	.byte	32
	.byte	64
	.byte	64
	.byte	61
	.byte	0
	.byte	127
	.byte	16
	.byte	40
	.byte	68
	.byte	0
	.byte	0
	.byte	65
	.byte	127
	.byte	64
	.byte	0
	.byte	124
	.byte	4
	.byte	24
	.byte	4
	.byte	120
	.byte	124
	.byte	8
	.byte	4
	.byte	4
	.byte	120
	.byte	56
	.byte	68
	.byte	68
	.byte	68
	.byte	56
	.byte	-4
	.byte	20
	.byte	20
	.byte	20
	.byte	8
	.byte	8
	.byte	20
	.byte	20
	.byte	24
	.byte	124
	.byte	124
	.byte	8
	.byte	4
	.byte	4
	.byte	8
	.byte	72
	.byte	84
	.byte	84
	.byte	84
	.byte	32
	.byte	4
	.byte	63
	.byte	68
	.byte	64
	.byte	32
	.byte	60
	.byte	64
	.byte	64
	.byte	32
	.byte	124
	.byte	28
	.byte	32
	.byte	64
	.byte	32
	.byte	28
	.byte	60
	.byte	64
	.byte	56
	.byte	64
	.byte	60
	.byte	68
	.byte	40
	.byte	16
	.byte	40
	.byte	68
	.byte	12
	.byte	80
	.byte	80
	.byte	80
	.byte	60
	.byte	68
	.byte	100
	.byte	84
	.byte	76
	.byte	68
	.byte	0
	.byte	8
	.byte	54
	.byte	65
	.byte	0
	.byte	0
	.byte	0
	.byte	127
	.byte	0
	.byte	0
	.byte	0
	.byte	65
	.byte	54
	.byte	8
	.byte	0
	.byte	0
	.byte	7
	.byte	0
	.byte	7
	.byte	0
	.byte	62
	.byte	54
	.byte	42
	.byte	54
	.byte	62
	.comm	display_x,4,4
	.comm	display_y,4,4
	.global	avr_brainwash_string
	.align	2
	.type	avr_brainwash_string, %object
	.size	avr_brainwash_string, 48
avr_brainwash_string:
	.byte	-52
	.byte	76
	.byte	101
	.byte	116
	.byte	39
	.byte	115
	.byte	32
	.byte	115
	.byte	97
	.byte	109
	.byte	98
	.byte	97
	.byte	32
	.byte	110
	.byte	120
	.byte	116
	.byte	32
	.byte	97
	.byte	114
	.byte	109
	.byte	32
	.byte	105
	.byte	110
	.byte	32
	.byte	97
	.byte	114
	.byte	109
	.byte	44
	.byte	32
	.byte	40
	.byte	99
	.byte	41
	.byte	76
	.byte	69
	.byte	71
	.byte	79
	.byte	32
	.byte	83
	.byte	121
	.byte	115
	.byte	116
	.byte	101
	.byte	109
	.byte	32
	.byte	65
	.byte	47
	.byte	83
	.byte	0
	.bss
	.align	2
io_to_avr:
	.space	8
	.align	2
motor:
	.space	48
	.text
	.align	2
	.global	generate_random_number
	.type	generate_random_number, %function
generate_random_number:
.LFB27:
	.file 2 "car.c"
	.loc 2 398 0
	.cfi_startproc
	@ Function supports interworking.
	@ args = 0, pretend = 0, frame = 8
	@ frame_needed = 0, uses_anonymous_args = 0
	@ link register save eliminated.
	sub	sp, sp, #8
	.cfi_def_cfa_offset 8
	.loc 2 403 0
	mov	r3, #1
	str	r3, [sp, #4]
	.loc 2 404 0
	ldr	r2, [sp, #4]
	ldr	r3, .L30
	smull	r1, r3, r2, r3
	mov	r1, r3, asr #2
	mov	r3, r2, asr #31
	rsb	r1, r3, r1
	mov	r3, r1
	mov	r3, r3, asl #2
	add	r3, r3, r1
	mov	r3, r3, asl #1
	rsb	r3, r3, r2
	str	r3, [sp]
	.loc 2 405 0
	ldr	r3, [sp]
	.loc 2 407 0
	mov	r0, r3
	add	sp, sp, #8
	.cfi_def_cfa_offset 0
	@ sp needed
	bx	lr
.L31:
	.align	2
.L30:
	.word	1717986919
	.cfi_endproc
.LFE27:
	.size	generate_random_number, .-generate_random_number
	.global	iSonarDistance
	.bss
	.align	2
	.type	iSonarDistance, %object
	.size	iSonarDistance, 4
iSonarDistance:
	.space	4
	.comm	sMotorResource,20,4
	.align	2
bt_receive_buf:
	.space	32
	.text
	.align	2
	.global	TaskMainBluetooth_Receive
	.type	TaskMainBluetooth_Receive, %function
TaskMainBluetooth_Receive:
.LFB28:
	.loc 2 412 0
	.cfi_startproc
	@ Function supports interworking.
	@ args = 0, pretend = 0, frame = 80
	@ frame_needed = 0, uses_anonymous_args = 0
	@ link register save eliminated.
	sub	sp, sp, #80
	.cfi_def_cfa_offset 80
	.loc 2 442 0
	mov	r3, #0
	str	r3, [sp, #60]
	.loc 2 444 0
	ldr	r3, [sp, #60]
	cmp	r3, #0
	beq	.L77
	.loc 2 445 0
	ldr	r3, .L86
	mov	r2, #0
	str	r2, [r3]
	.loc 2 446 0
	mov	r0, r0	@ nop
.L33:
.L77:
	.loc 2 449 0
	mov	r0, r0	@ nop
.L34:
	.loc 2 451 0
	mov	r3, #0
	str	r3, [sp, #56]
	.loc 2 452 0
	mov	r3, #1
	str	r3, [sp, #52]
	.loc 2 453 0
	ldr	r2, .L86+4
	ldr	r3, [sp, #56]
	str	r3, [r2]
	.loc 2 454 0
	ldr	r2, .L86+8
	ldr	r3, [sp, #52]
	str	r3, [r2]
	.loc 2 455 0
	mov	r0, r0	@ nop
.L35:
	.loc 2 457 0
	mov	r3, #9
	str	r3, [sp, #76]
	.loc 2 458 0
	b	.L36
.L43:
	.loc 2 459 0
	.syntax divided
@ 459 "car.c" 1
	1:
        .section .wcet_annot
        .long 1b
        .long 1
        .long 9
                        .text
@ 0 "" 2
	.loc 2 460 0
	.arm
	.syntax divided
	ldr	r3, [sp, #76]
	cmp	r3, #10
	beq	.L37
	.loc 2 461 0
	mov	r3, #1
	str	r3, [sp, #48]
	.loc 2 462 0
	ldr	r3, [sp, #48]
	cmp	r3, #0
	blt	.L78
	.loc 2 463 0
	ldr	r3, [sp, #48]
	cmp	r3, #127
	bgt	.L78
	.loc 2 464 0
	ldr	r3, .L86+4
	ldr	r3, [r3]
	cmp	r3, #0
	blt	.L78
	.loc 2 465 0
	ldr	r3, .L86+4
	ldr	r3, [r3]
	cmp	r3, #15
	bgt	.L78
	.loc 2 466 0
	ldr	r3, .L86+8
	ldr	r3, [r3]
	cmp	r3, #0
	blt	.L78
	.loc 2 467 0
	ldr	r3, .L86+8
	ldr	r3, [r3]
	cmp	r3, #7
	bgt	.L78
	.loc 2 470 0
	mov	r3, #0
	str	r3, [sp, #68]
	.loc 2 471 0
	b	.L39
.L40:
	.loc 2 472 0
	.syntax divided
@ 472 "car.c" 1
	1:
        .section .wcet_annot
        .long 1b
        .long 1
        .long 5
                        .text
@ 0 "" 2
	.loc 2 476 0
	.arm
	.syntax divided
	ldr	r3, [sp, #68]
	add	r3, r3, #1
	str	r3, [sp, #68]
.L39:
	.loc 2 471 0
	ldr	r3, [sp, #68]
	cmp	r3, #4
	ble	.L40
.L78:
	.loc 2 484 0
	mov	r0, r0	@ nop
.L41:
	.loc 2 486 0
	ldr	r3, .L86+4
	ldr	r3, [r3]
	add	r3, r3, #1
	ldr	r2, .L86+4
	str	r3, [r2]
	b	.L42
.L37:
	.loc 2 488 0
	ldr	r3, .L86+4
	mov	r2, #0
	str	r2, [r3]
	.loc 2 489 0
	ldr	r3, .L86+8
	ldr	r3, [r3]
	add	r3, r3, #1
	ldr	r2, .L86+8
	str	r3, [r2]
.L42:
	.loc 2 491 0
	ldr	r3, [sp, #76]
	add	r3, r3, #1
	str	r3, [sp, #76]
.L36:
	.loc 2 458 0
	ldr	r3, [sp, #76]
	cmp	r3, #0
	bne	.L43
	.loc 2 493 0
	mov	r0, r0	@ nop
.L44:
	.loc 2 495 0
	ldr	r3, .L86
	mov	r2, #0
	str	r2, [r3]
	.loc 2 496 0
	mov	r0, r0	@ nop
.L45:
	.loc 2 498 0
	mov	r3, #1
	str	r3, [sp, #44]
	.loc 2 499 0
	ldr	r2, [sp, #44]
	ldr	r3, .L86+12
	smull	r1, r3, r2, r3
	mov	r1, r3, asr #2
	mov	r3, r2, asr #31
	rsb	r1, r3, r1
	mov	r3, r1
	mov	r3, r3, asl #2
	add	r3, r3, r1
	mov	r3, r3, asl #1
	rsb	r3, r3, r2
	str	r3, [sp, #40]
	.loc 2 500 0
	ldr	r3, [sp, #40]
	str	r3, [sp, #36]
	.loc 2 501 0
	mov	r0, r0	@ nop
.L46:
	.loc 2 503 0
	ldr	r3, [sp, #36]
	str	r3, [sp, #32]
	.loc 2 504 0
	ldr	r3, [sp, #32]
	and	r3, r3, #1
	cmp	r3, #0
	bne	.L79
	.loc 2 506 0
	ldr	r3, .L86+16
	ldrb	r3, [r3]	@ zero_extendqisi2
	cmp	r3, #1
	bne	.L79
	.loc 2 507 0
	mov	r3, #0
	str	r3, [sp, #28]
	.loc 2 509 0
	ldr	r3, [sp, #28]
	cmp	r3, #0
	beq	.L80
	.loc 2 511 0
	ldr	r3, .L86
	mov	r2, #0
	str	r2, [r3]
	.loc 2 513 0
	ldr	r3, .L86+20
	ldr	r3, [r3]
	cmp	r3, #0
	beq	.L81
	.loc 2 516 0
	ldr	r3, .L86+24
	mov	r2, #1
	strb	r2, [r3]
	.loc 2 518 0
	b	.L50
.L81:
	.loc 2 514 0
	mov	r0, r0	@ nop
.L50:
	.loc 2 522 0 discriminator 1
	mov	r0, r0	@ nop
	.loc 2 524 0 discriminator 1
	mov	r0, r0	@ nop
.L51:
.L48:
.L80:
	.loc 2 527 0
	mov	r0, r0	@ nop
.L52:
	.loc 2 529 0
	mov	r3, #0
	str	r3, [sp, #24]
	.loc 2 530 0
	mov	r3, #1
	str	r3, [sp, #20]
	.loc 2 531 0
	ldr	r2, .L86+4
	ldr	r3, [sp, #24]
	str	r3, [r2]
	.loc 2 532 0
	ldr	r2, .L86+8
	ldr	r3, [sp, #20]
	str	r3, [r2]
	.loc 2 533 0
	mov	r0, r0	@ nop
.L53:
	.loc 2 535 0
	mov	r3, #12
	str	r3, [sp, #72]
	.loc 2 536 0
	b	.L54
.L61:
	.loc 2 537 0
	.syntax divided
@ 537 "car.c" 1
	1:
        .section .wcet_annot
        .long 1b
        .long 1
        .long 12
                        .text
@ 0 "" 2
	.loc 2 538 0
	.arm
	.syntax divided
	ldr	r3, [sp, #72]
	cmp	r3, #10
	beq	.L55
	.loc 2 539 0
	mov	r3, #1
	str	r3, [sp, #16]
	.loc 2 540 0
	ldr	r3, [sp, #16]
	cmp	r3, #0
	blt	.L82
	.loc 2 541 0
	ldr	r3, [sp, #16]
	cmp	r3, #127
	bgt	.L82
	.loc 2 542 0
	ldr	r3, .L86+4
	ldr	r3, [r3]
	cmp	r3, #0
	blt	.L82
	.loc 2 543 0
	ldr	r3, .L86+4
	ldr	r3, [r3]
	cmp	r3, #15
	bgt	.L82
	.loc 2 544 0
	ldr	r3, .L86+8
	ldr	r3, [r3]
	cmp	r3, #0
	blt	.L82
	.loc 2 545 0
	ldr	r3, .L86+8
	ldr	r3, [r3]
	cmp	r3, #7
	bgt	.L82
	.loc 2 548 0
	mov	r3, #0
	str	r3, [sp, #64]
	.loc 2 549 0
	b	.L57
.L58:
	.loc 2 550 0
	.syntax divided
@ 550 "car.c" 1
	1:
        .section .wcet_annot
        .long 1b
        .long 1
        .long 5
                        .text
@ 0 "" 2
	.loc 2 554 0
	.arm
	.syntax divided
	ldr	r3, [sp, #64]
	add	r3, r3, #1
	str	r3, [sp, #64]
.L57:
	.loc 2 549 0
	ldr	r3, [sp, #64]
	cmp	r3, #4
	ble	.L58
.L82:
	.loc 2 562 0
	mov	r0, r0	@ nop
.L59:
	.loc 2 564 0
	ldr	r3, .L86+4
	ldr	r3, [r3]
	add	r3, r3, #1
	ldr	r2, .L86+4
	str	r3, [r2]
	b	.L60
.L55:
	.loc 2 566 0
	ldr	r3, .L86+4
	mov	r2, #0
	str	r2, [r3]
	.loc 2 567 0
	ldr	r3, .L86+8
	ldr	r3, [r3]
	add	r3, r3, #1
	ldr	r2, .L86+8
	str	r3, [r2]
.L60:
	.loc 2 569 0
	ldr	r3, [sp, #72]
	add	r3, r3, #1
	str	r3, [sp, #72]
.L54:
	.loc 2 536 0
	ldr	r3, [sp, #72]
	cmp	r3, #0
	bne	.L61
	.loc 2 571 0
	mov	r0, r0	@ nop
.L62:
	.loc 2 574 0
	ldr	r3, .L86
	mov	r2, #0
	str	r2, [r3]
	.loc 2 576 0
	ldr	r3, .L86+20
	ldr	r3, [r3]
	cmp	r3, #0
	beq	.L83
	.loc 2 579 0
	ldr	r3, .L86+24
	mov	r2, #1
	strb	r2, [r3]
	.loc 2 581 0
	b	.L64
.L83:
	.loc 2 577 0
	mov	r0, r0	@ nop
.L64:
	.loc 2 585 0 discriminator 4
	mov	r0, r0	@ nop
	.loc 2 587 0 discriminator 4
	mov	r0, r0	@ nop
.L65:
.L66:
	.loc 2 593 0 discriminator 4
	ldr	r3, .L86+16
	ldrb	r3, [r3, #1]	@ zero_extendqisi2
	cmp	r3, #50
	beq	.L67
	.loc 2 594 0
	ldr	r3, .L86+16
	ldrb	r3, [r3, #1]	@ zero_extendqisi2
	mov	r2, r3
	ldr	r3, .L86+28
	str	r2, [r3, #12]
	.loc 2 595 0
	mov	r3, #0
	str	r3, [sp, #12]
	.loc 2 596 0
	mov	r3, #2
	str	r3, [sp, #8]
	.loc 2 597 0
	ldr	r2, .L86+4
	ldr	r3, [sp, #12]
	str	r3, [r2]
	.loc 2 598 0
	ldr	r2, .L86+8
	ldr	r3, [sp, #8]
	str	r3, [r2]
	.loc 2 599 0
	mov	r0, r0	@ nop
.L68:
	.loc 2 603 0
	ldr	r3, .L86
	mov	r2, #0
	str	r2, [r3]
	.loc 2 605 0
	ldr	r3, .L86+20
	ldr	r3, [r3]
	cmp	r3, #0
	beq	.L84
	.loc 2 608 0
	ldr	r3, .L86+24
	mov	r2, #1
	strb	r2, [r3]
	.loc 2 610 0
	b	.L70
.L84:
	.loc 2 606 0
	mov	r0, r0	@ nop
.L70:
	.loc 2 614 0 discriminator 6
	mov	r0, r0	@ nop
.L71:
	.loc 2 616 0 discriminator 6
	mov	r0, r0	@ nop
.L67:
	.loc 2 619 0
	ldr	r3, .L86+16
	ldrb	r3, [r3, #2]	@ zero_extendqisi2
	cmp	r3, #50
	beq	.L79
	.loc 2 620 0
	ldr	r3, .L86+16
	ldrb	r3, [r3, #2]	@ zero_extendqisi2
	mov	r2, r3
	ldr	r3, .L86+28
	str	r2, [r3, #8]
	.loc 2 621 0
	mov	r3, #0
	str	r3, [sp, #4]
	.loc 2 622 0
	mov	r3, #3
	str	r3, [sp]
	.loc 2 623 0
	ldr	r2, .L86+4
	ldr	r3, [sp, #4]
	str	r3, [r2]
	.loc 2 624 0
	ldr	r2, .L86+8
	ldr	r3, [sp]
	str	r3, [r2]
	.loc 2 625 0
	mov	r0, r0	@ nop
.L72:
	.loc 2 629 0
	ldr	r3, .L86
	mov	r2, #0
	str	r2, [r3]
	.loc 2 631 0
	ldr	r3, .L86+20
	ldr	r3, [r3]
	cmp	r3, #0
	beq	.L85
	.loc 2 634 0
	ldr	r3, .L86+24
	mov	r2, #1
	strb	r2, [r3]
	.loc 2 636 0
	b	.L74
.L85:
	.loc 2 632 0
	mov	r0, r0	@ nop
.L74:
	.loc 2 640 0 discriminator 8
	mov	r0, r0	@ nop
	.loc 2 642 0 discriminator 8
	mov	r0, r0	@ nop
	.loc 2 649 0 discriminator 8
	mov	r0, r0	@ nop
.L75:
.L47:
.L79:
	.loc 2 649 0 is_stmt 0
	mov	r0, r0	@ nop
	.loc 2 651 0 is_stmt 1
	add	sp, sp, #80
	.cfi_def_cfa_offset 0
	@ sp needed
	bx	lr
.L87:
	.align	2
.L86:
	.word	display_tick
	.word	display_x
	.word	display_y
	.word	1717986919
	.word	bt_receive_buf
	.word	displayM_change
	.word	dirty_change
	.word	sMotorResource
	.cfi_endproc
.LFE28:
	.size	TaskMainBluetooth_Receive, .-TaskMainBluetooth_Receive
	.align	2
	.global	TaskMainGetCurrentSonarSensor
	.type	TaskMainGetCurrentSonarSensor, %function
TaskMainGetCurrentSonarSensor:
.LFB29:
	.loc 2 653 0
	.cfi_startproc
	@ Function supports interworking.
	@ args = 0, pretend = 0, frame = 40
	@ frame_needed = 0, uses_anonymous_args = 0
	@ link register save eliminated.
	sub	sp, sp, #40
	.cfi_def_cfa_offset 40
	.loc 2 669 0
	mov	r3, #1
	str	r3, [sp, #28]
	.loc 2 670 0
	ldr	r2, [sp, #28]
	ldr	r3, .L107
	smull	r1, r3, r2, r3
	mov	r1, r3, asr #2
	mov	r3, r2, asr #31
	rsb	r1, r3, r1
	mov	r3, r1
	mov	r3, r3, asl #2
	add	r3, r3, r1
	mov	r3, r3, asl #1
	rsb	r3, r3, r2
	str	r3, [sp, #24]
	.loc 2 671 0
	ldr	r3, [sp, #24]
	str	r3, [sp, #20]
	.loc 2 672 0
	mov	r0, r0	@ nop
.L89:
	.loc 2 674 0
	ldr	r3, [sp, #20]
	str	r3, [sp, #16]
	.loc 2 675 0
	ldr	r3, [sp, #16]
	str	r3, [sp, #12]
	.loc 2 676 0
	mov	r3, #0
	str	r3, [sp, #8]
	.loc 2 677 0
	mov	r3, #3
	str	r3, [sp, #4]
	.loc 2 678 0
	ldr	r2, .L107+4
	ldr	r3, [sp, #8]
	str	r3, [r2]
	.loc 2 679 0
	ldr	r2, .L107+8
	ldr	r3, [sp, #4]
	str	r3, [r2]
	.loc 2 680 0
	mov	r0, r0	@ nop
.L90:
	.loc 2 682 0
	mov	r3, #5
	str	r3, [sp, #36]
	.loc 2 683 0
	b	.L91
.L98:
	.loc 2 684 0
	.syntax divided
@ 684 "car.c" 1
	1:
        .section .wcet_annot
        .long 1b
        .long 1
        .long 5
                        .text
@ 0 "" 2
	.loc 2 685 0
	.arm
	.syntax divided
	ldr	r3, [sp, #36]
	cmp	r3, #10
	beq	.L92
	.loc 2 686 0
	mov	r3, #1
	str	r3, [sp]
	.loc 2 687 0
	ldr	r3, [sp]
	cmp	r3, #0
	blt	.L105
	.loc 2 688 0
	ldr	r3, [sp]
	cmp	r3, #127
	bgt	.L105
	.loc 2 689 0
	ldr	r3, .L107+4
	ldr	r3, [r3]
	cmp	r3, #0
	blt	.L105
	.loc 2 690 0
	ldr	r3, .L107+4
	ldr	r3, [r3]
	cmp	r3, #15
	bgt	.L105
	.loc 2 691 0
	ldr	r3, .L107+8
	ldr	r3, [r3]
	cmp	r3, #0
	blt	.L105
	.loc 2 692 0
	ldr	r3, .L107+8
	ldr	r3, [r3]
	cmp	r3, #7
	bgt	.L105
	.loc 2 695 0
	mov	r3, #0
	str	r3, [sp, #32]
	.loc 2 696 0
	b	.L94
.L95:
	.loc 2 697 0
	.syntax divided
@ 697 "car.c" 1
	1:
        .section .wcet_annot
        .long 1b
        .long 1
        .long 5
                        .text
@ 0 "" 2
	.loc 2 701 0
	.arm
	.syntax divided
	ldr	r3, [sp, #32]
	add	r3, r3, #1
	str	r3, [sp, #32]
.L94:
	.loc 2 696 0
	ldr	r3, [sp, #32]
	cmp	r3, #4
	ble	.L95
.L105:
	.loc 2 709 0
	mov	r0, r0	@ nop
.L96:
	.loc 2 711 0
	ldr	r3, .L107+4
	ldr	r3, [r3]
	add	r3, r3, #1
	ldr	r2, .L107+4
	str	r3, [r2]
	b	.L97
.L92:
	.loc 2 713 0
	ldr	r3, .L107+4
	mov	r2, #0
	str	r2, [r3]
	.loc 2 714 0
	ldr	r3, .L107+8
	ldr	r3, [r3]
	add	r3, r3, #1
	ldr	r2, .L107+8
	str	r3, [r2]
.L97:
	.loc 2 716 0
	ldr	r3, [sp, #36]
	add	r3, r3, #1
	str	r3, [sp, #36]
.L91:
	.loc 2 683 0
	ldr	r3, [sp, #36]
	cmp	r3, #0
	bne	.L98
	.loc 2 718 0
	mov	r0, r0	@ nop
.L99:
	.loc 2 721 0
	ldr	r3, .L107+12
	mov	r2, #0
	str	r2, [r3]
	.loc 2 723 0
	ldr	r3, .L107+16
	ldr	r3, [r3]
	cmp	r3, #0
	beq	.L106
	.loc 2 726 0
	ldr	r3, .L107+20
	mov	r2, #1
	strb	r2, [r3]
	.loc 2 728 0
	b	.L101
.L106:
	.loc 2 724 0
	mov	r0, r0	@ nop
.L101:
	.loc 2 732 0 discriminator 1
	mov	r0, r0	@ nop
	.loc 2 734 0 discriminator 1
	mov	r0, r0	@ nop
.L102:
.L103:
	.loc 2 742 0 discriminator 1
	mov	r0, r0	@ nop
	.loc 2 744 0 discriminator 1
	add	sp, sp, #40
	.cfi_def_cfa_offset 0
	@ sp needed
	bx	lr
.L108:
	.align	2
.L107:
	.word	1717986919
	.word	display_x
	.word	display_y
	.word	display_tick
	.word	displayM_change
	.word	dirty_change
	.cfi_endproc
.LFE29:
	.size	TaskMainGetCurrentSonarSensor, .-TaskMainGetCurrentSonarSensor
	.align	2
	.global	TaskMainMotorControlTask
	.type	TaskMainMotorControlTask, %function
TaskMainMotorControlTask:
.LFB30:
	.loc 2 746 0
	.cfi_startproc
	@ Function supports interworking.
	@ args = 0, pretend = 0, frame = 128
	@ frame_needed = 0, uses_anonymous_args = 0
	@ link register save eliminated.
	sub	sp, sp, #128
	.cfi_def_cfa_offset 128
	.loc 2 775 0
	mov	r3, #0
	str	r3, [sp, #108]
	.loc 2 776 0
	mov	r3, #1
	strb	r3, [sp]
	.loc 2 777 0
	mov	r3, #0
	str	r3, [sp, #104]
	.loc 2 778 0
	mov	r3, #1
	str	r3, [sp, #100]
	.loc 2 779 0
	ldr	r2, .L145
	ldr	r3, [sp, #104]
	str	r3, [r2]
	.loc 2 780 0
	ldr	r2, .L145+4
	ldr	r3, [sp, #100]
	str	r3, [r2]
	.loc 2 781 0
	mov	r0, r0	@ nop
.L110:
	.loc 2 784 0
	mov	r3, #0
	str	r3, [sp, #96]
	.loc 2 785 0
	mov	r3, #2
	str	r3, [sp, #92]
	.loc 2 786 0
	ldr	r2, .L145
	ldr	r3, [sp, #96]
	str	r3, [r2]
	.loc 2 787 0
	ldr	r2, .L145+4
	ldr	r3, [sp, #92]
	str	r3, [r2]
	.loc 2 788 0
	mov	r0, r0	@ nop
.L111:
	.loc 2 792 0
	ldr	r3, .L145+8
	mov	r2, #0
	str	r2, [r3]
	.loc 2 794 0
	ldr	r3, .L145+12
	ldr	r3, [r3]
	cmp	r3, #0
	beq	.L139
	.loc 2 797 0
	ldr	r3, .L145+16
	mov	r2, #1
	strb	r2, [r3]
	.loc 2 799 0
	b	.L113
.L139:
	.loc 2 795 0
	mov	r0, r0	@ nop
.L113:
	.loc 2 803 0 discriminator 1
	mov	r0, r0	@ nop
	.loc 2 805 0 discriminator 1
	mov	r0, r0	@ nop
.L114:
.L115:
	.loc 2 807 0 discriminator 1
	mov	r3, #1
	str	r3, [sp, #88]
	.loc 2 808 0 discriminator 1
	ldr	r2, [sp, #88]
	ldr	r3, .L145+20
	smull	r1, r3, r2, r3
	mov	r1, r3, asr #2
	mov	r3, r2, asr #31
	rsb	r1, r3, r1
	mov	r3, r1
	mov	r3, r3, asl #2
	add	r3, r3, r1
	mov	r3, r3, asl #1
	rsb	r3, r3, r2
	str	r3, [sp, #84]
	.loc 2 809 0 discriminator 1
	ldr	r3, [sp, #84]
	str	r3, [sp, #80]
	.loc 2 810 0 discriminator 1
	mov	r0, r0	@ nop
.L116:
	.loc 2 812 0 discriminator 1
	ldr	r3, [sp, #80]
	str	r3, [sp, #108]
	.loc 2 813 0 discriminator 1
	mov	r3, #0
	str	r3, [sp, #76]
	.loc 2 814 0 discriminator 1
	mov	r3, #4
	str	r3, [sp, #72]
	.loc 2 815 0 discriminator 1
	ldr	r2, .L145
	ldr	r3, [sp, #76]
	str	r3, [r2]
	.loc 2 816 0 discriminator 1
	ldr	r2, .L145+4
	ldr	r3, [sp, #72]
	str	r3, [r2]
	.loc 2 817 0 discriminator 1
	mov	r0, r0	@ nop
.L117:
	.loc 2 821 0 discriminator 1
	ldr	r3, .L145+8
	mov	r2, #0
	str	r2, [r3]
	.loc 2 823 0 discriminator 1
	ldr	r3, .L145+12
	ldr	r3, [r3]
	cmp	r3, #0
	beq	.L140
	.loc 2 826 0
	ldr	r3, .L145+16
	mov	r2, #1
	strb	r2, [r3]
	.loc 2 828 0
	b	.L119
.L140:
	.loc 2 824 0
	mov	r0, r0	@ nop
.L119:
	.loc 2 832 0 discriminator 3
	mov	r0, r0	@ nop
	.loc 2 834 0 discriminator 3
	mov	r0, r0	@ nop
.L120:
.L121:
	.loc 2 836 0 discriminator 3
	ldr	r3, [sp, #108]
	and	r3, r3, #1
	cmp	r3, #0
	bne	.L122
	.loc 2 837 0
	ldr	r3, .L145+24
	ldr	r3, [r3, #4]
	cmp	r3, #225
	bgt	.L123
	.loc 2 838 0
	mov	r3, #0
	str	r3, [sp, #124]
	.loc 2 839 0
	mov	r3, #0
	str	r3, [sp, #120]
	b	.L122
.L123:
	.loc 2 841 0
	ldr	r3, .L145+24
	ldr	r2, [r3]
	ldr	r3, .L145+24
	ldr	r3, [r3, #4]
	cmp	r2, r3
	bne	.L124
	.loc 2 842 0
	mov	r3, #0
	str	r3, [sp, #124]
	.loc 2 843 0
	mov	r3, #0
	str	r3, [sp, #120]
	b	.L122
.L124:
	.loc 2 845 0
	ldr	r3, .L145+24
	ldr	r3, [r3, #4]
	cmp	r3, #254
	ble	.L125
	.loc 2 846 0
	mov	r3, #0
	strb	r3, [sp]
	.loc 2 848 0
	ldr	r3, .L145+24
	ldr	r3, [r3, #12]
	str	r3, [sp, #124]
	.loc 2 849 0
	ldr	r3, .L145+24
	ldr	r3, [r3, #8]
	str	r3, [sp, #120]
	b	.L122
.L125:
	.loc 2 851 0
	ldr	r3, .L145+24
	ldr	r3, [r3, #12]
	str	r3, [sp, #124]
	.loc 2 852 0
	ldr	r3, .L145+24
	ldr	r3, [r3, #8]
	str	r3, [sp, #120]
.L122:
	.loc 2 855 0
	mov	r3, #0
	str	r3, [sp, #68]
	.loc 2 856 0
	ldr	r3, [sp, #124]
	str	r3, [sp, #116]
	.loc 2 857 0
	mov	r3, #1
	str	r3, [sp, #64]
	.loc 2 858 0
	ldr	r3, [sp, #68]
	cmp	r3, #2
	bhi	.L141
	.loc 2 859 0
	ldr	r3, [sp, #116]
	cmp	r3, #100
	ble	.L127
	.loc 2 860 0
	mov	r3, #100
	str	r3, [sp, #116]
.L127:
	.loc 2 862 0
	ldr	r3, [sp, #116]
	cmn	r3, #100
	bge	.L128
	.loc 2 863 0
	mvn	r3, #99
	str	r3, [sp, #116]
.L128:
	.loc 2 865 0
	ldr	r2, .L145+28
	ldr	r3, [sp, #68]
	mov	r3, r3, asl #4
	add	r3, r2, r3
	ldr	r2, [sp, #116]
	str	r2, [r3, #8]
	.loc 2 866 0
	ldr	r3, [sp, #68]
	str	r3, [sp, #60]
	.loc 2 867 0
	ldr	r3, [sp, #116]
	str	r3, [sp, #56]
	.loc 2 868 0
	ldr	r3, [sp, #64]
	str	r3, [sp, #52]
	.loc 2 869 0
	ldr	r3, [sp, #60]
	cmp	r3, #2
	bhi	.L142
	.loc 2 870 0
	ldr	r3, [sp, #56]
	mov	r3, r3, asl #24
	mov	r1, r3, asr #24
	ldr	r2, .L145+32
	ldr	r3, [sp, #60]
	add	r3, r2, r3
	add	r3, r3, #2
	mov	r2, r1
	strb	r2, [r3]
	.loc 2 871 0
	ldr	r3, [sp, #52]
	cmp	r3, #0
	beq	.L130
	.loc 2 872 0
	ldr	r3, .L145+32
	ldrb	r3, [r3, #6]	@ zero_extendqisi2
	mov	r3, r3, asl #24
	mov	r2, r3, asr #24
	mov	r1, #1
	ldr	r3, [sp, #60]
	mov	r3, r1, asl r3
	mov	r3, r3, asl #24
	mov	r3, r3, asr #24
	orr	r3, r2, r3
	mov	r3, r3, asl #24
	mov	r3, r3, asr #24
	and	r2, r3, #255
	ldr	r3, .L145+32
	strb	r2, [r3, #6]
	.loc 2 877 0
	b	.L142
.L130:
	.loc 2 874 0
	ldr	r3, .L145+32
	ldrb	r3, [r3, #6]	@ zero_extendqisi2
	mov	r3, r3, asl #24
	mov	r2, r3, asr #24
	mov	r1, #1
	ldr	r3, [sp, #60]
	mov	r3, r1, asl r3
	mov	r3, r3, asl #24
	mov	r3, r3, asr #24
	mvn	r3, r3
	mov	r3, r3, asl #24
	mov	r3, r3, asr #24
	and	r3, r3, r2
	mov	r3, r3, asl #24
	mov	r3, r3, asr #24
	and	r2, r3, #255
	ldr	r3, .L145+32
	strb	r2, [r3, #6]
.L142:
	.loc 2 877 0
	mov	r0, r0	@ nop
.L126:
.L141:
	.loc 2 880 0
	mov	r0, r0	@ nop
.L131:
	.loc 2 882 0
	mov	r3, #1
	str	r3, [sp, #48]
	.loc 2 883 0
	ldr	r3, [sp, #120]
	str	r3, [sp, #112]
	.loc 2 884 0
	mov	r3, #1
	str	r3, [sp, #44]
	.loc 2 885 0
	ldr	r3, [sp, #48]
	cmp	r3, #2
	bhi	.L143
	.loc 2 886 0
	ldr	r3, [sp, #112]
	cmp	r3, #100
	ble	.L133
	.loc 2 887 0
	mov	r3, #100
	str	r3, [sp, #112]
.L133:
	.loc 2 889 0
	ldr	r3, [sp, #112]
	cmn	r3, #100
	bge	.L134
	.loc 2 890 0
	mvn	r3, #99
	str	r3, [sp, #112]
.L134:
	.loc 2 892 0
	ldr	r2, .L145+28
	ldr	r3, [sp, #48]
	mov	r3, r3, asl #4
	add	r3, r2, r3
	ldr	r2, [sp, #112]
	str	r2, [r3, #8]
	.loc 2 893 0
	ldr	r3, [sp, #48]
	str	r3, [sp, #40]
	.loc 2 894 0
	ldr	r3, [sp, #112]
	str	r3, [sp, #36]
	.loc 2 895 0
	ldr	r3, [sp, #44]
	str	r3, [sp, #32]
	.loc 2 896 0
	ldr	r3, [sp, #40]
	cmp	r3, #2
	bhi	.L144
	.loc 2 897 0
	ldr	r3, [sp, #36]
	mov	r3, r3, asl #24
	mov	r1, r3, asr #24
	ldr	r2, .L145+32
	ldr	r3, [sp, #40]
	add	r3, r2, r3
	add	r3, r3, #2
	mov	r2, r1
	strb	r2, [r3]
	.loc 2 898 0
	ldr	r3, [sp, #32]
	cmp	r3, #0
	beq	.L136
	.loc 2 899 0
	ldr	r3, .L145+32
	ldrb	r3, [r3, #6]	@ zero_extendqisi2
	mov	r3, r3, asl #24
	mov	r2, r3, asr #24
	mov	r1, #1
	ldr	r3, [sp, #40]
	mov	r3, r1, asl r3
	mov	r3, r3, asl #24
	mov	r3, r3, asr #24
	orr	r3, r2, r3
	mov	r3, r3, asl #24
	mov	r3, r3, asr #24
	and	r2, r3, #255
	ldr	r3, .L145+32
	strb	r2, [r3, #6]
	.loc 2 904 0
	b	.L144
.L136:
	.loc 2 901 0
	ldr	r3, .L145+32
	ldrb	r3, [r3, #6]	@ zero_extendqisi2
	mov	r3, r3, asl #24
	mov	r2, r3, asr #24
	mov	r1, #1
	ldr	r3, [sp, #40]
	mov	r3, r1, asl r3
	mov	r3, r3, asl #24
	mov	r3, r3, asr #24
	mvn	r3, r3
	mov	r3, r3, asl #24
	mov	r3, r3, asr #24
	and	r3, r3, r2
	mov	r3, r3, asl #24
	mov	r3, r3, asr #24
	and	r2, r3, #255
	ldr	r3, .L145+32
	strb	r2, [r3, #6]
.L144:
	.loc 2 904 0
	mov	r0, r0	@ nop
.L132:
.L143:
	.loc 2 907 0
	mov	r0, r0	@ nop
.L137:
	.loc 2 912 0
	mov	r0, r0	@ nop
	.loc 2 914 0
	add	sp, sp, #128
	.cfi_def_cfa_offset 0
	@ sp needed
	bx	lr
.L146:
	.align	2
.L145:
	.word	display_x
	.word	display_y
	.word	display_tick
	.word	displayM_change
	.word	dirty_change
	.word	1717986919
	.word	sMotorResource
	.word	motor
	.word	io_to_avr
	.cfi_endproc
.LFE30:
	.size	TaskMainMotorControlTask, .-TaskMainMotorControlTask
	.data
	.align	2
	.type	bt_status, %object
	.size	bt_status, 4
bt_status:
	.word	4
	.text
	.align	2
	.global	TaskMainIdleTask
	.type	TaskMainIdleTask, %function
TaskMainIdleTask:
.LFB31:
	.loc 2 918 0
	.cfi_startproc
	@ Function supports interworking.
	@ args = 0, pretend = 0, frame = 64
	@ frame_needed = 0, uses_anonymous_args = 0
	@ link register save eliminated.
	sub	sp, sp, #64
	.cfi_def_cfa_offset 64
.LBB2:
	.loc 2 941 0
	mov	r3, #0
	str	r3, [sp, #44]
	.loc 2 942 0
	b	.L148
.L188:
	.loc 2 943 0
	.syntax divided
@ 943 "car.c" 1
	1:
        .section .wcet_annot
        .long 1b
        .long 1
        .long 4
                        .text
@ 0 "" 2
	.loc 2 945 0
	.arm
	.syntax divided
	mov	r3, #1
	str	r3, [sp, #40]
	.loc 2 946 0
	ldr	r3, [sp, #40]
	cmp	r3, #4
	bne	.L149
	.loc 2 947 0
	mov	r3, #0
	str	r3, [sp, #36]
	.loc 2 949 0
	ldr	r3, [sp, #36]
	cmp	r3, #0
	beq	.L189
	.loc 2 951 0
	ldr	r3, .L197
	mov	r2, #0
	str	r2, [r3]
	.loc 2 953 0
	ldr	r3, .L197+4
	ldr	r3, [r3]
	cmp	r3, #0
	beq	.L190
	.loc 2 956 0
	ldr	r3, .L197+8
	mov	r2, #1
	strb	r2, [r3]
	.loc 2 958 0
	b	.L152
.L190:
	.loc 2 954 0
	mov	r0, r0	@ nop
.L152:
	.loc 2 962 0 discriminator 1
	mov	r0, r0	@ nop
	.loc 2 964 0 discriminator 1
	mov	r0, r0	@ nop
.L153:
.L150:
.L189:
	.loc 2 967 0
	mov	r0, r0	@ nop
.L154:
	.loc 2 969 0
	mov	r3, #0
	str	r3, [sp, #32]
	.loc 2 970 0
	mov	r3, #0
	str	r3, [sp, #28]
	.loc 2 971 0
	ldr	r2, .L197+12
	ldr	r3, [sp, #32]
	str	r3, [r2]
	.loc 2 972 0
	ldr	r2, .L197+16
	ldr	r3, [sp, #28]
	str	r3, [r2]
	.loc 2 973 0
	mov	r0, r0	@ nop
.L155:
	.loc 2 975 0
	mov	r3, #14
	str	r3, [sp, #60]
	.loc 2 976 0
	b	.L156
.L163:
	.loc 2 977 0
	.syntax divided
@ 977 "car.c" 1
	1:
        .section .wcet_annot
        .long 1b
        .long 1
        .long 14
                        .text
@ 0 "" 2
	.loc 2 978 0
	.arm
	.syntax divided
	ldr	r3, [sp, #60]
	cmp	r3, #10
	beq	.L157
	.loc 2 979 0
	mov	r3, #1
	str	r3, [sp, #24]
	.loc 2 980 0
	ldr	r3, [sp, #24]
	cmp	r3, #0
	blt	.L191
	.loc 2 981 0
	ldr	r3, [sp, #24]
	cmp	r3, #127
	bgt	.L191
	.loc 2 982 0
	ldr	r3, .L197+12
	ldr	r3, [r3]
	cmp	r3, #0
	blt	.L191
	.loc 2 983 0
	ldr	r3, .L197+12
	ldr	r3, [r3]
	cmp	r3, #15
	bgt	.L191
	.loc 2 984 0
	ldr	r3, .L197+16
	ldr	r3, [r3]
	cmp	r3, #0
	blt	.L191
	.loc 2 985 0
	ldr	r3, .L197+16
	ldr	r3, [r3]
	cmp	r3, #7
	bgt	.L191
	.loc 2 988 0
	mov	r3, #0
	str	r3, [sp, #52]
	.loc 2 989 0
	b	.L159
.L160:
	.loc 2 990 0
	.syntax divided
@ 990 "car.c" 1
	1:
        .section .wcet_annot
        .long 1b
        .long 1
        .long 5
                        .text
@ 0 "" 2
	.loc 2 994 0
	.arm
	.syntax divided
	ldr	r3, [sp, #52]
	add	r3, r3, #1
	str	r3, [sp, #52]
.L159:
	.loc 2 989 0
	ldr	r3, [sp, #52]
	cmp	r3, #4
	ble	.L160
.L191:
	.loc 2 1002 0
	mov	r0, r0	@ nop
.L161:
	.loc 2 1004 0
	ldr	r3, .L197+12
	ldr	r3, [r3]
	add	r3, r3, #1
	ldr	r2, .L197+12
	str	r3, [r2]
	b	.L162
.L157:
	.loc 2 1006 0
	ldr	r3, .L197+12
	mov	r2, #0
	str	r2, [r3]
	.loc 2 1007 0
	ldr	r3, .L197+16
	ldr	r3, [r3]
	add	r3, r3, #1
	ldr	r2, .L197+16
	str	r3, [r2]
.L162:
	.loc 2 1009 0
	ldr	r3, [sp, #60]
	add	r3, r3, #1
	str	r3, [sp, #60]
.L156:
	.loc 2 976 0
	ldr	r3, [sp, #60]
	cmp	r3, #0
	bne	.L163
	.loc 2 1011 0
	mov	r0, r0	@ nop
.L164:
	.loc 2 1014 0
	ldr	r3, .L197
	mov	r2, #0
	str	r2, [r3]
	.loc 2 1016 0
	ldr	r3, .L197+4
	ldr	r3, [r3]
	cmp	r3, #0
	beq	.L192
	.loc 2 1019 0
	ldr	r3, .L197+8
	mov	r2, #1
	strb	r2, [r3]
	.loc 2 1021 0
	b	.L166
.L192:
	.loc 2 1017 0
	mov	r0, r0	@ nop
.L166:
	.loc 2 1025 0 discriminator 4
	mov	r0, r0	@ nop
.L167:
	.loc 2 1027 0 discriminator 4
	mov	r0, r0	@ nop
.L149:
	.loc 2 1030 0
	mov	r3, #1
	str	r3, [sp, #20]
	.loc 2 1031 0
	ldr	r3, [sp, #20]
	cmp	r3, #7
	bne	.L168
	.loc 2 1032 0
	ldr	r3, .L197+20
	ldr	r3, [r3]
	cmp	r3, #7
	beq	.L168
	.loc 2 1033 0
	mov	r3, #0
	str	r3, [sp, #16]
	.loc 2 1035 0
	ldr	r3, [sp, #16]
	cmp	r3, #0
	beq	.L193
	.loc 2 1037 0
	ldr	r3, .L197
	mov	r2, #0
	str	r2, [r3]
	.loc 2 1039 0
	ldr	r3, .L197+4
	ldr	r3, [r3]
	cmp	r3, #0
	beq	.L194
	.loc 2 1042 0
	ldr	r3, .L197+8
	mov	r2, #1
	strb	r2, [r3]
	.loc 2 1044 0
	b	.L171
.L194:
	.loc 2 1040 0
	mov	r0, r0	@ nop
.L171:
	.loc 2 1048 0 discriminator 6
	mov	r0, r0	@ nop
	.loc 2 1050 0 discriminator 6
	mov	r0, r0	@ nop
.L172:
.L169:
.L193:
	.loc 2 1053 0
	mov	r0, r0	@ nop
.L173:
	.loc 2 1055 0
	mov	r3, #0
	str	r3, [sp, #12]
	.loc 2 1056 0
	mov	r3, #0
	str	r3, [sp, #8]
	.loc 2 1057 0
	ldr	r2, .L197+12
	ldr	r3, [sp, #12]
	str	r3, [r2]
	.loc 2 1058 0
	ldr	r2, .L197+16
	ldr	r3, [sp, #8]
	str	r3, [r2]
	.loc 2 1059 0
	mov	r0, r0	@ nop
.L174:
	.loc 2 1061 0
	mov	r3, #2
	str	r3, [sp, #56]
	.loc 2 1062 0
	b	.L175
.L182:
	.loc 2 1063 0
	.syntax divided
@ 1063 "car.c" 1
	1:
        .section .wcet_annot
        .long 1b
        .long 1
        .long 2
                        .text
@ 0 "" 2
	.loc 2 1064 0
	.arm
	.syntax divided
	ldr	r3, [sp, #56]
	cmp	r3, #10
	beq	.L176
	.loc 2 1066 0
	ldr	r3, [sp, #4]
	cmp	r3, #0
	blt	.L195
	.loc 2 1067 0
	ldr	r3, [sp, #4]
	cmp	r3, #127
	bgt	.L195
	.loc 2 1068 0
	ldr	r3, .L197+12
	ldr	r3, [r3]
	cmp	r3, #0
	blt	.L195
	.loc 2 1069 0
	ldr	r3, .L197+12
	ldr	r3, [r3]
	cmp	r3, #15
	bgt	.L195
	.loc 2 1070 0
	ldr	r3, .L197+16
	ldr	r3, [r3]
	cmp	r3, #0
	blt	.L195
	.loc 2 1071 0
	ldr	r3, .L197+16
	ldr	r3, [r3]
	cmp	r3, #7
	bgt	.L195
	.loc 2 1074 0
	mov	r3, #0
	str	r3, [sp, #48]
	.loc 2 1075 0
	b	.L178
.L179:
	.loc 2 1076 0
	.syntax divided
@ 1076 "car.c" 1
	1:
        .section .wcet_annot
        .long 1b
        .long 1
        .long 5
                        .text
@ 0 "" 2
	.loc 2 1080 0
	.arm
	.syntax divided
	ldr	r3, [sp, #48]
	add	r3, r3, #1
	str	r3, [sp, #48]
.L178:
	.loc 2 1075 0
	ldr	r3, [sp, #48]
	cmp	r3, #4
	ble	.L179
.L195:
	.loc 2 1088 0
	mov	r0, r0	@ nop
.L180:
	.loc 2 1090 0
	ldr	r3, .L197+12
	ldr	r3, [r3]
	add	r3, r3, #1
	ldr	r2, .L197+12
	str	r3, [r2]
	b	.L181
.L176:
	.loc 2 1092 0
	ldr	r3, .L197+12
	mov	r2, #0
	str	r2, [r3]
	.loc 2 1093 0
	ldr	r3, .L197+16
	ldr	r3, [r3]
	add	r3, r3, #1
	ldr	r2, .L197+16
	str	r3, [r2]
.L181:
	.loc 2 1095 0
	ldr	r3, [sp, #56]
	add	r3, r3, #1
	str	r3, [sp, #56]
.L175:
	.loc 2 1062 0
	ldr	r3, [sp, #56]
	cmp	r3, #0
	bne	.L182
	.loc 2 1097 0
	mov	r0, r0	@ nop
.L183:
	.loc 2 1100 0
	ldr	r3, .L197
	mov	r2, #0
	str	r2, [r3]
	.loc 2 1102 0
	ldr	r3, .L197+4
	ldr	r3, [r3]
	cmp	r3, #0
	beq	.L196
	.loc 2 1105 0
	ldr	r3, .L197+8
	mov	r2, #1
	strb	r2, [r3]
	.loc 2 1107 0
	b	.L185
.L196:
	.loc 2 1103 0
	mov	r0, r0	@ nop
.L185:
	.loc 2 1111 0 discriminator 9
	mov	r0, r0	@ nop
	.loc 2 1113 0 discriminator 9
	mov	r0, r0	@ nop
.L186:
.L187:
	.loc 2 1115 0 discriminator 9
	ldr	r3, [sp, #44]
	add	r3, r3, #1
	str	r3, [sp, #44]
.L168:
	.loc 2 1118 0
	ldr	r3, .L197+20
	mov	r2, #1
	str	r2, [r3]
.L148:
	.loc 2 942 0
	ldr	r3, [sp, #44]
	cmp	r3, #4
	ble	.L188
.LBE2:
	.loc 2 1121 0
	mov	r0, r0	@ nop
	add	sp, sp, #64
	.cfi_def_cfa_offset 0
	@ sp needed
	bx	lr
.L198:
	.align	2
.L197:
	.word	display_tick
	.word	displayM_change
	.word	dirty_change
	.word	display_x
	.word	display_y
	.word	bt_status
	.cfi_endproc
.LFE31:
	.size	TaskMainIdleTask, .-TaskMainIdleTask
	.align	2
	.global	TaskMainBluetooth_Receive_blk
	.type	TaskMainBluetooth_Receive_blk, %function
TaskMainBluetooth_Receive_blk:
.LFB32:
	.loc 2 1122 0
	.cfi_startproc
	@ Function supports interworking.
	@ args = 0, pretend = 0, frame = 80
	@ frame_needed = 0, uses_anonymous_args = 0
	@ link register save eliminated.
	sub	sp, sp, #80
	.cfi_def_cfa_offset 80
	.loc 2 1152 0
	mov	r3, #0
	str	r3, [sp, #60]
	.loc 2 1154 0
	ldr	r3, [sp, #60]
	cmp	r3, #0
	beq	.L243
	.loc 2 1155 0
	ldr	r3, .L252
	mov	r2, #0
	str	r2, [r3]
	.loc 2 1156 0
	mov	r0, r0	@ nop
.L200:
.L243:
	.loc 2 1159 0
	mov	r0, r0	@ nop
.L201:
	.loc 2 1161 0
	mov	r3, #0
	str	r3, [sp, #56]
	.loc 2 1162 0
	mov	r3, #1
	str	r3, [sp, #52]
	.loc 2 1163 0
	ldr	r2, .L252+4
	ldr	r3, [sp, #56]
	str	r3, [r2]
	.loc 2 1164 0
	ldr	r2, .L252+8
	ldr	r3, [sp, #52]
	str	r3, [r2]
	.loc 2 1165 0
	mov	r0, r0	@ nop
.L202:
	.loc 2 1167 0
	mov	r3, #9
	str	r3, [sp, #76]
	.loc 2 1168 0
	b	.L203
.L210:
	.loc 2 1169 0
	.syntax divided
@ 1169 "car.c" 1
	1:
        .section .wcet_annot
        .long 1b
        .long 1
        .long 9
                        .text
@ 0 "" 2
	.loc 2 1170 0
	.arm
	.syntax divided
	ldr	r3, [sp, #76]
	cmp	r3, #10
	beq	.L204
	.loc 2 1171 0
	mov	r3, #1
	str	r3, [sp, #48]
	.loc 2 1172 0
	ldr	r3, [sp, #48]
	cmp	r3, #0
	blt	.L244
	.loc 2 1173 0
	ldr	r3, [sp, #48]
	cmp	r3, #127
	bgt	.L244
	.loc 2 1174 0
	ldr	r3, .L252+4
	ldr	r3, [r3]
	cmp	r3, #0
	blt	.L244
	.loc 2 1175 0
	ldr	r3, .L252+4
	ldr	r3, [r3]
	cmp	r3, #15
	bgt	.L244
	.loc 2 1176 0
	ldr	r3, .L252+8
	ldr	r3, [r3]
	cmp	r3, #0
	blt	.L244
	.loc 2 1177 0
	ldr	r3, .L252+8
	ldr	r3, [r3]
	cmp	r3, #7
	bgt	.L244
	.loc 2 1180 0
	mov	r3, #0
	str	r3, [sp, #68]
	.loc 2 1181 0
	b	.L206
.L207:
	.loc 2 1182 0
	.syntax divided
@ 1182 "car.c" 1
	1:
        .section .wcet_annot
        .long 1b
        .long 1
        .long 5
                        .text
@ 0 "" 2
	.loc 2 1186 0
	.arm
	.syntax divided
	ldr	r3, [sp, #68]
	add	r3, r3, #1
	str	r3, [sp, #68]
.L206:
	.loc 2 1181 0
	ldr	r3, [sp, #68]
	cmp	r3, #4
	ble	.L207
.L244:
	.loc 2 1194 0
	mov	r0, r0	@ nop
.L208:
	.loc 2 1196 0
	ldr	r3, .L252+4
	ldr	r3, [r3]
	add	r3, r3, #1
	ldr	r2, .L252+4
	str	r3, [r2]
	b	.L209
.L204:
	.loc 2 1198 0
	ldr	r3, .L252+4
	mov	r2, #0
	str	r2, [r3]
	.loc 2 1199 0
	ldr	r3, .L252+8
	ldr	r3, [r3]
	add	r3, r3, #1
	ldr	r2, .L252+8
	str	r3, [r2]
.L209:
	.loc 2 1201 0
	ldr	r3, [sp, #76]
	add	r3, r3, #1
	str	r3, [sp, #76]
.L203:
	.loc 2 1168 0
	ldr	r3, [sp, #76]
	cmp	r3, #0
	bne	.L210
	.loc 2 1203 0
	mov	r0, r0	@ nop
.L211:
	.loc 2 1205 0
	ldr	r3, .L252
	mov	r2, #0
	str	r2, [r3]
	.loc 2 1206 0
	mov	r0, r0	@ nop
.L212:
	.loc 2 1208 0
	mov	r3, #1
	str	r3, [sp, #44]
	.loc 2 1209 0
	ldr	r2, [sp, #44]
	ldr	r3, .L252+12
	smull	r1, r3, r2, r3
	mov	r1, r3, asr #2
	mov	r3, r2, asr #31
	rsb	r1, r3, r1
	mov	r3, r1
	mov	r3, r3, asl #2
	add	r3, r3, r1
	mov	r3, r3, asl #1
	rsb	r3, r3, r2
	str	r3, [sp, #40]
	.loc 2 1210 0
	ldr	r3, [sp, #40]
	str	r3, [sp, #36]
	.loc 2 1211 0
	mov	r0, r0	@ nop
.L213:
	.loc 2 1213 0
	ldr	r3, [sp, #36]
	str	r3, [sp, #32]
	.loc 2 1214 0
	ldr	r3, [sp, #32]
	and	r3, r3, #1
	cmp	r3, #0
	bne	.L245
	.loc 2 1216 0
	ldr	r3, .L252+16
	ldrb	r3, [r3]	@ zero_extendqisi2
	cmp	r3, #1
	bne	.L245
	.loc 2 1217 0
	mov	r3, #0
	str	r3, [sp, #28]
	.loc 2 1219 0
	ldr	r3, [sp, #28]
	cmp	r3, #0
	beq	.L246
	.loc 2 1221 0
	ldr	r3, .L252
	mov	r2, #0
	str	r2, [r3]
	.loc 2 1223 0
	ldr	r3, .L252+20
	ldr	r3, [r3]
	cmp	r3, #0
	beq	.L247
	.loc 2 1226 0
	ldr	r3, .L252+24
	mov	r2, #1
	strb	r2, [r3]
	.loc 2 1228 0
	b	.L217
.L247:
	.loc 2 1224 0
	mov	r0, r0	@ nop
.L217:
	.loc 2 1232 0 discriminator 1
	mov	r0, r0	@ nop
	.loc 2 1234 0 discriminator 1
	mov	r0, r0	@ nop
.L218:
.L215:
.L246:
	.loc 2 1237 0
	mov	r0, r0	@ nop
.L219:
	.loc 2 1239 0
	mov	r3, #0
	str	r3, [sp, #24]
	.loc 2 1240 0
	mov	r3, #1
	str	r3, [sp, #20]
	.loc 2 1241 0
	ldr	r2, .L252+4
	ldr	r3, [sp, #24]
	str	r3, [r2]
	.loc 2 1242 0
	ldr	r2, .L252+8
	ldr	r3, [sp, #20]
	str	r3, [r2]
	.loc 2 1243 0
	mov	r0, r0	@ nop
.L220:
	.loc 2 1245 0
	mov	r3, #12
	str	r3, [sp, #72]
	.loc 2 1246 0
	b	.L221
.L228:
	.loc 2 1247 0
	.syntax divided
@ 1247 "car.c" 1
	1:
        .section .wcet_annot
        .long 1b
        .long 1
        .long 12
                        .text
@ 0 "" 2
	.loc 2 1248 0
	.arm
	.syntax divided
	ldr	r3, [sp, #72]
	cmp	r3, #10
	beq	.L222
	.loc 2 1249 0
	mov	r3, #1
	str	r3, [sp, #16]
	.loc 2 1250 0
	ldr	r3, [sp, #16]
	cmp	r3, #0
	blt	.L248
	.loc 2 1251 0
	ldr	r3, [sp, #16]
	cmp	r3, #127
	bgt	.L248
	.loc 2 1252 0
	ldr	r3, .L252+4
	ldr	r3, [r3]
	cmp	r3, #0
	blt	.L248
	.loc 2 1253 0
	ldr	r3, .L252+4
	ldr	r3, [r3]
	cmp	r3, #15
	bgt	.L248
	.loc 2 1254 0
	ldr	r3, .L252+8
	ldr	r3, [r3]
	cmp	r3, #0
	blt	.L248
	.loc 2 1255 0
	ldr	r3, .L252+8
	ldr	r3, [r3]
	cmp	r3, #7
	bgt	.L248
	.loc 2 1258 0
	mov	r3, #0
	str	r3, [sp, #64]
	.loc 2 1259 0
	b	.L224
.L225:
	.loc 2 1260 0
	.syntax divided
@ 1260 "car.c" 1
	1:
        .section .wcet_annot
        .long 1b
        .long 1
        .long 5
                        .text
@ 0 "" 2
	.loc 2 1264 0
	.arm
	.syntax divided
	ldr	r3, [sp, #64]
	add	r3, r3, #1
	str	r3, [sp, #64]
.L224:
	.loc 2 1259 0
	ldr	r3, [sp, #64]
	cmp	r3, #4
	ble	.L225
.L248:
	.loc 2 1272 0
	mov	r0, r0	@ nop
.L226:
	.loc 2 1274 0
	ldr	r3, .L252+4
	ldr	r3, [r3]
	add	r3, r3, #1
	ldr	r2, .L252+4
	str	r3, [r2]
	b	.L227
.L222:
	.loc 2 1276 0
	ldr	r3, .L252+4
	mov	r2, #0
	str	r2, [r3]
	.loc 2 1277 0
	ldr	r3, .L252+8
	ldr	r3, [r3]
	add	r3, r3, #1
	ldr	r2, .L252+8
	str	r3, [r2]
.L227:
	.loc 2 1279 0
	ldr	r3, [sp, #72]
	add	r3, r3, #1
	str	r3, [sp, #72]
.L221:
	.loc 2 1246 0
	ldr	r3, [sp, #72]
	cmp	r3, #0
	bne	.L228
	.loc 2 1281 0
	mov	r0, r0	@ nop
.L229:
	.loc 2 1284 0
	ldr	r3, .L252
	mov	r2, #0
	str	r2, [r3]
	.loc 2 1286 0
	ldr	r3, .L252+20
	ldr	r3, [r3]
	cmp	r3, #0
	beq	.L249
	.loc 2 1289 0
	ldr	r3, .L252+24
	mov	r2, #1
	strb	r2, [r3]
	.loc 2 1291 0
	b	.L231
.L249:
	.loc 2 1287 0
	mov	r0, r0	@ nop
.L231:
	.loc 2 1295 0 discriminator 4
	mov	r0, r0	@ nop
	.loc 2 1297 0 discriminator 4
	mov	r0, r0	@ nop
.L232:
.L233:
	.loc 2 1303 0 discriminator 4
	ldr	r3, .L252+16
	ldrb	r3, [r3, #1]	@ zero_extendqisi2
	cmp	r3, #50
	beq	.L234
	.loc 2 1304 0
	ldr	r3, .L252+16
	ldrb	r3, [r3, #1]	@ zero_extendqisi2
	mov	r2, r3
	ldr	r3, .L252+28
	str	r2, [r3, #12]
	.loc 2 1305 0
	mov	r3, #0
	str	r3, [sp, #12]
	.loc 2 1306 0
	mov	r3, #2
	str	r3, [sp, #8]
	.loc 2 1307 0
	ldr	r2, .L252+4
	ldr	r3, [sp, #12]
	str	r3, [r2]
	.loc 2 1308 0
	ldr	r2, .L252+8
	ldr	r3, [sp, #8]
	str	r3, [r2]
	.loc 2 1309 0
	mov	r0, r0	@ nop
.L235:
	.loc 2 1313 0
	ldr	r3, .L252
	mov	r2, #0
	str	r2, [r3]
	.loc 2 1315 0
	ldr	r3, .L252+20
	ldr	r3, [r3]
	cmp	r3, #0
	beq	.L250
	.loc 2 1318 0
	ldr	r3, .L252+24
	mov	r2, #1
	strb	r2, [r3]
	.loc 2 1320 0
	b	.L237
.L250:
	.loc 2 1316 0
	mov	r0, r0	@ nop
.L237:
	.loc 2 1324 0 discriminator 6
	mov	r0, r0	@ nop
.L238:
	.loc 2 1326 0 discriminator 6
	mov	r0, r0	@ nop
.L234:
	.loc 2 1329 0
	ldr	r3, .L252+16
	ldrb	r3, [r3, #2]	@ zero_extendqisi2
	cmp	r3, #50
	beq	.L245
	.loc 2 1330 0
	ldr	r3, .L252+16
	ldrb	r3, [r3, #2]	@ zero_extendqisi2
	mov	r2, r3
	ldr	r3, .L252+28
	str	r2, [r3, #8]
	.loc 2 1331 0
	mov	r3, #0
	str	r3, [sp, #4]
	.loc 2 1332 0
	mov	r3, #3
	str	r3, [sp]
	.loc 2 1333 0
	ldr	r2, .L252+4
	ldr	r3, [sp, #4]
	str	r3, [r2]
	.loc 2 1334 0
	ldr	r2, .L252+8
	ldr	r3, [sp]
	str	r3, [r2]
	.loc 2 1335 0
	mov	r0, r0	@ nop
.L239:
	.loc 2 1339 0
	ldr	r3, .L252
	mov	r2, #0
	str	r2, [r3]
	.loc 2 1341 0
	ldr	r3, .L252+20
	ldr	r3, [r3]
	cmp	r3, #0
	beq	.L251
	.loc 2 1344 0
	ldr	r3, .L252+24
	mov	r2, #1
	strb	r2, [r3]
	.loc 2 1346 0
	b	.L241
.L251:
	.loc 2 1342 0
	mov	r0, r0	@ nop
.L241:
	.loc 2 1350 0 discriminator 8
	mov	r0, r0	@ nop
	.loc 2 1352 0 discriminator 8
	mov	r0, r0	@ nop
.L242:
.L214:
.L245:
	.loc 2 1360 0
	mov	r0, r0	@ nop
	add	sp, sp, #80
	.cfi_def_cfa_offset 0
	@ sp needed
	bx	lr
.L253:
	.align	2
.L252:
	.word	display_tick
	.word	display_x
	.word	display_y
	.word	1717986919
	.word	bt_receive_buf
	.word	displayM_change
	.word	dirty_change
	.word	sMotorResource
	.cfi_endproc
.LFE32:
	.size	TaskMainBluetooth_Receive_blk, .-TaskMainBluetooth_Receive_blk
	.align	2
	.global	TaskMainGetCurrentSonarSensor_blk
	.type	TaskMainGetCurrentSonarSensor_blk, %function
TaskMainGetCurrentSonarSensor_blk:
.LFB33:
	.loc 2 1362 0
	.cfi_startproc
	@ Function supports interworking.
	@ args = 0, pretend = 0, frame = 8
	@ frame_needed = 0, uses_anonymous_args = 0
	@ link register save eliminated.
	sub	sp, sp, #8
	.cfi_def_cfa_offset 8
	.loc 2 1364 0
	ldr	r3, [sp, #4]
	and	r3, r3, #1
	cmp	r3, #0
	bne	.L256
	.loc 2 1365 0
	ldr	r3, .L257
	mov	r2, #1
	str	r2, [r3, #4]
.L256:
	.loc 2 1368 0
	mov	r0, r0	@ nop
	add	sp, sp, #8
	.cfi_def_cfa_offset 0
	@ sp needed
	bx	lr
.L258:
	.align	2
.L257:
	.word	sMotorResource
	.cfi_endproc
.LFE33:
	.size	TaskMainGetCurrentSonarSensor_blk, .-TaskMainGetCurrentSonarSensor_blk
	.align	2
	.global	TaskMainMotorControlTask_blk
	.type	TaskMainMotorControlTask_blk, %function
TaskMainMotorControlTask_blk:
.LFB34:
	.loc 2 1369 0
	.cfi_startproc
	@ Function supports interworking.
	@ args = 0, pretend = 0, frame = 128
	@ frame_needed = 0, uses_anonymous_args = 0
	@ link register save eliminated.
	sub	sp, sp, #128
	.cfi_def_cfa_offset 128
	.loc 2 1398 0
	mov	r3, #0
	str	r3, [sp, #108]
	.loc 2 1399 0
	mov	r3, #1
	strb	r3, [sp]
	.loc 2 1400 0
	mov	r3, #0
	str	r3, [sp, #104]
	.loc 2 1401 0
	mov	r3, #1
	str	r3, [sp, #100]
	.loc 2 1402 0
	ldr	r2, .L293
	ldr	r3, [sp, #104]
	str	r3, [r2]
	.loc 2 1403 0
	ldr	r2, .L293+4
	ldr	r3, [sp, #100]
	str	r3, [r2]
	.loc 2 1404 0
	mov	r0, r0	@ nop
.L260:
	.loc 2 1407 0
	mov	r3, #0
	str	r3, [sp, #96]
	.loc 2 1408 0
	mov	r3, #2
	str	r3, [sp, #92]
	.loc 2 1409 0
	ldr	r2, .L293
	ldr	r3, [sp, #96]
	str	r3, [r2]
	.loc 2 1410 0
	ldr	r2, .L293+4
	ldr	r3, [sp, #92]
	str	r3, [r2]
	.loc 2 1411 0
	mov	r0, r0	@ nop
.L261:
	.loc 2 1415 0
	ldr	r3, .L293+8
	mov	r2, #0
	str	r2, [r3]
	.loc 2 1417 0
	ldr	r3, .L293+12
	ldr	r3, [r3]
	cmp	r3, #0
	beq	.L287
	.loc 2 1420 0
	ldr	r3, .L293+16
	mov	r2, #1
	strb	r2, [r3]
	.loc 2 1422 0
	b	.L263
.L287:
	.loc 2 1418 0
	mov	r0, r0	@ nop
.L263:
	.loc 2 1426 0 discriminator 1
	mov	r0, r0	@ nop
	.loc 2 1428 0 discriminator 1
	mov	r0, r0	@ nop
.L264:
.L265:
	.loc 2 1430 0 discriminator 1
	mov	r3, #1
	str	r3, [sp, #88]
	.loc 2 1431 0 discriminator 1
	ldr	r2, [sp, #88]
	ldr	r3, .L293+20
	smull	r1, r3, r2, r3
	mov	r1, r3, asr #2
	mov	r3, r2, asr #31
	rsb	r1, r3, r1
	mov	r3, r1
	mov	r3, r3, asl #2
	add	r3, r3, r1
	mov	r3, r3, asl #1
	rsb	r3, r3, r2
	str	r3, [sp, #84]
	.loc 2 1432 0 discriminator 1
	ldr	r3, [sp, #84]
	str	r3, [sp, #80]
	.loc 2 1433 0 discriminator 1
	mov	r0, r0	@ nop
.L266:
	.loc 2 1435 0 discriminator 1
	ldr	r3, [sp, #80]
	str	r3, [sp, #108]
	.loc 2 1436 0 discriminator 1
	mov	r3, #0
	str	r3, [sp, #76]
	.loc 2 1437 0 discriminator 1
	mov	r3, #4
	str	r3, [sp, #72]
	.loc 2 1438 0 discriminator 1
	ldr	r2, .L293
	ldr	r3, [sp, #76]
	str	r3, [r2]
	.loc 2 1439 0 discriminator 1
	ldr	r2, .L293+4
	ldr	r3, [sp, #72]
	str	r3, [r2]
	.loc 2 1440 0 discriminator 1
	mov	r0, r0	@ nop
.L267:
	.loc 2 1444 0 discriminator 1
	ldr	r3, .L293+8
	mov	r2, #0
	str	r2, [r3]
	.loc 2 1446 0 discriminator 1
	ldr	r3, .L293+12
	ldr	r3, [r3]
	cmp	r3, #0
	beq	.L288
	.loc 2 1449 0
	ldr	r3, .L293+16
	mov	r2, #1
	strb	r2, [r3]
	.loc 2 1451 0
	b	.L269
.L288:
	.loc 2 1447 0
	mov	r0, r0	@ nop
.L269:
	.loc 2 1455 0 discriminator 3
	mov	r0, r0	@ nop
	.loc 2 1457 0 discriminator 3
	mov	r0, r0	@ nop
.L270:
.L271:
	.loc 2 1459 0 discriminator 3
	ldr	r3, [sp, #108]
	and	r3, r3, #1
	cmp	r3, #0
	bne	.L272
	.loc 2 1460 0
	ldr	r3, .L293+24
	ldr	r3, [r3, #4]
	cmp	r3, #225
	bgt	.L273
	.loc 2 1461 0
	mov	r3, #0
	str	r3, [sp, #124]
	.loc 2 1462 0
	mov	r3, #0
	str	r3, [sp, #120]
	b	.L272
.L273:
	.loc 2 1464 0
	ldr	r3, .L293+24
	ldr	r2, [r3]
	ldr	r3, .L293+24
	ldr	r3, [r3, #4]
	cmp	r2, r3
	bne	.L274
	.loc 2 1465 0
	mov	r3, #0
	str	r3, [sp, #124]
	.loc 2 1466 0
	mov	r3, #0
	str	r3, [sp, #120]
	b	.L272
.L274:
	.loc 2 1468 0
	ldr	r3, .L293+24
	ldr	r3, [r3, #4]
	cmp	r3, #254
	ble	.L275
	.loc 2 1469 0
	mov	r3, #0
	strb	r3, [sp]
	.loc 2 1471 0
	ldr	r3, .L293+24
	ldr	r3, [r3, #12]
	str	r3, [sp, #124]
	.loc 2 1472 0
	ldr	r3, .L293+24
	ldr	r3, [r3, #8]
	str	r3, [sp, #120]
	b	.L272
.L275:
	.loc 2 1474 0
	ldr	r3, .L293+24
	ldr	r3, [r3, #12]
	str	r3, [sp, #124]
	.loc 2 1475 0
	ldr	r3, .L293+24
	ldr	r3, [r3, #8]
	str	r3, [sp, #120]
.L272:
	.loc 2 1478 0
	mov	r3, #0
	str	r3, [sp, #68]
	.loc 2 1479 0
	ldr	r3, [sp, #124]
	str	r3, [sp, #116]
	.loc 2 1480 0
	mov	r3, #1
	str	r3, [sp, #64]
	.loc 2 1481 0
	ldr	r3, [sp, #68]
	cmp	r3, #2
	bhi	.L289
	.loc 2 1482 0
	ldr	r3, [sp, #116]
	cmp	r3, #100
	ble	.L277
	.loc 2 1483 0
	mov	r3, #100
	str	r3, [sp, #116]
.L277:
	.loc 2 1485 0
	ldr	r3, [sp, #116]
	cmn	r3, #100
	bge	.L278
	.loc 2 1486 0
	mvn	r3, #99
	str	r3, [sp, #116]
.L278:
	.loc 2 1488 0
	ldr	r2, .L293+28
	ldr	r3, [sp, #68]
	mov	r3, r3, asl #4
	add	r3, r2, r3
	ldr	r2, [sp, #116]
	str	r2, [r3, #8]
	.loc 2 1489 0
	ldr	r3, [sp, #68]
	str	r3, [sp, #60]
	.loc 2 1490 0
	ldr	r3, [sp, #116]
	str	r3, [sp, #56]
	.loc 2 1491 0
	ldr	r3, [sp, #64]
	str	r3, [sp, #52]
	.loc 2 1492 0
	ldr	r3, [sp, #60]
	cmp	r3, #2
	bhi	.L290
	.loc 2 1493 0
	ldr	r3, [sp, #56]
	mov	r3, r3, asl #24
	mov	r1, r3, asr #24
	ldr	r2, .L293+32
	ldr	r3, [sp, #60]
	add	r3, r2, r3
	add	r3, r3, #2
	mov	r2, r1
	strb	r2, [r3]
	.loc 2 1494 0
	ldr	r3, [sp, #52]
	cmp	r3, #0
	beq	.L280
	.loc 2 1495 0
	ldr	r3, .L293+32
	ldrb	r3, [r3, #6]	@ zero_extendqisi2
	mov	r3, r3, asl #24
	mov	r2, r3, asr #24
	mov	r1, #1
	ldr	r3, [sp, #60]
	mov	r3, r1, asl r3
	mov	r3, r3, asl #24
	mov	r3, r3, asr #24
	orr	r3, r2, r3
	mov	r3, r3, asl #24
	mov	r3, r3, asr #24
	and	r2, r3, #255
	ldr	r3, .L293+32
	strb	r2, [r3, #6]
	.loc 2 1500 0
	b	.L290
.L280:
	.loc 2 1497 0
	ldr	r3, .L293+32
	ldrb	r3, [r3, #6]	@ zero_extendqisi2
	mov	r3, r3, asl #24
	mov	r2, r3, asr #24
	mov	r1, #1
	ldr	r3, [sp, #60]
	mov	r3, r1, asl r3
	mov	r3, r3, asl #24
	mov	r3, r3, asr #24
	mvn	r3, r3
	mov	r3, r3, asl #24
	mov	r3, r3, asr #24
	and	r3, r3, r2
	mov	r3, r3, asl #24
	mov	r3, r3, asr #24
	and	r2, r3, #255
	ldr	r3, .L293+32
	strb	r2, [r3, #6]
.L290:
	.loc 2 1500 0
	mov	r0, r0	@ nop
.L276:
.L289:
	.loc 2 1503 0
	mov	r0, r0	@ nop
.L281:
	.loc 2 1505 0
	mov	r3, #1
	str	r3, [sp, #48]
	.loc 2 1506 0
	ldr	r3, [sp, #120]
	str	r3, [sp, #112]
	.loc 2 1507 0
	mov	r3, #1
	str	r3, [sp, #44]
	.loc 2 1508 0
	ldr	r3, [sp, #48]
	cmp	r3, #2
	bhi	.L291
	.loc 2 1509 0
	ldr	r3, [sp, #112]
	cmp	r3, #100
	ble	.L283
	.loc 2 1510 0
	mov	r3, #100
	str	r3, [sp, #112]
.L283:
	.loc 2 1512 0
	ldr	r3, [sp, #112]
	cmn	r3, #100
	bge	.L284
	.loc 2 1513 0
	mvn	r3, #99
	str	r3, [sp, #112]
.L284:
	.loc 2 1515 0
	ldr	r2, .L293+28
	ldr	r3, [sp, #48]
	mov	r3, r3, asl #4
	add	r3, r2, r3
	ldr	r2, [sp, #112]
	str	r2, [r3, #8]
	.loc 2 1516 0
	ldr	r3, [sp, #48]
	str	r3, [sp, #40]
	.loc 2 1517 0
	ldr	r3, [sp, #112]
	str	r3, [sp, #36]
	.loc 2 1518 0
	ldr	r3, [sp, #44]
	str	r3, [sp, #32]
	.loc 2 1519 0
	ldr	r3, [sp, #40]
	cmp	r3, #2
	bhi	.L292
	.loc 2 1520 0
	ldr	r3, [sp, #36]
	mov	r3, r3, asl #24
	mov	r1, r3, asr #24
	ldr	r2, .L293+32
	ldr	r3, [sp, #40]
	add	r3, r2, r3
	add	r3, r3, #2
	mov	r2, r1
	strb	r2, [r3]
	.loc 2 1521 0
	ldr	r3, [sp, #32]
	cmp	r3, #0
	beq	.L286
	.loc 2 1522 0
	ldr	r3, .L293+32
	ldrb	r3, [r3, #6]	@ zero_extendqisi2
	mov	r3, r3, asl #24
	mov	r2, r3, asr #24
	mov	r1, #1
	ldr	r3, [sp, #40]
	mov	r3, r1, asl r3
	mov	r3, r3, asl #24
	mov	r3, r3, asr #24
	orr	r3, r2, r3
	mov	r3, r3, asl #24
	mov	r3, r3, asr #24
	and	r2, r3, #255
	ldr	r3, .L293+32
	strb	r2, [r3, #6]
	.loc 2 1527 0
	b	.L292
.L286:
	.loc 2 1524 0
	ldr	r3, .L293+32
	ldrb	r3, [r3, #6]	@ zero_extendqisi2
	mov	r3, r3, asl #24
	mov	r2, r3, asr #24
	mov	r1, #1
	ldr	r3, [sp, #40]
	mov	r3, r1, asl r3
	mov	r3, r3, asl #24
	mov	r3, r3, asr #24
	mvn	r3, r3
	mov	r3, r3, asl #24
	mov	r3, r3, asr #24
	and	r3, r3, r2
	mov	r3, r3, asl #24
	mov	r3, r3, asr #24
	and	r2, r3, #255
	ldr	r3, .L293+32
	strb	r2, [r3, #6]
.L292:
	.loc 2 1527 0
	mov	r0, r0	@ nop
.L282:
.L291:
	.loc 2 1534 0
	mov	r0, r0	@ nop
	add	sp, sp, #128
	.cfi_def_cfa_offset 0
	@ sp needed
	bx	lr
.L294:
	.align	2
.L293:
	.word	display_x
	.word	display_y
	.word	display_tick
	.word	displayM_change
	.word	dirty_change
	.word	1717986919
	.word	sMotorResource
	.word	motor
	.word	io_to_avr
	.cfi_endproc
.LFE34:
	.size	TaskMainMotorControlTask_blk, .-TaskMainMotorControlTask_blk
	.align	2
	.global	main
	.type	main, %function
main:
.LFB35:
	.loc 2 1537 0
	.cfi_startproc
	@ Function supports interworking.
	@ args = 0, pretend = 0, frame = 0
	@ frame_needed = 0, uses_anonymous_args = 0
	stmfd	sp!, {r4, lr}
	.cfi_def_cfa_offset 8
	.cfi_offset 4, -8
	.cfi_offset 14, -4
	.loc 2 1543 0
	bl	TaskMainIdleTask
	.loc 2 1548 0
	mov	r0, r0	@ nop
	.loc 2 1550 0
	ldmfd	sp!, {r4, lr}
	.cfi_restore 14
	.cfi_restore 4
	.cfi_def_cfa_offset 0
	bx	lr
	.cfi_endproc
.LFE35:
	.size	main, .-main
.Letext0: