	.cpu arm7tdmi
	.fpu softvfp
	.eabi_attribute 20, 1
	.eabi_attribute 21, 1
	.eabi_attribute 23, 3
	.eabi_attribute 24, 1
	.eabi_attribute 25, 1
	.eabi_attribute 26, 1
	.eabi_attribute 30, 6
	.eabi_attribute 34, 0
	.eabi_attribute 18, 4
	.arm
	.syntax divided
	.file	"high_check.c"
	.text
.Ltext0:
	.cfi_sections	.debug_frame
	.align	2
	.global	__aeabi_idiv
	.type	__aeabi_idiv, %function
__aeabi_idiv:
.LFB0:
	.file 1 "../ARMlib.h"
	.loc 1 29 0
	.cfi_startproc
	@ Function supports interworking.
	@ args = 0, pretend = 0, frame = 0
	@ frame_needed = 0, uses_anonymous_args = 0
	@ link register save eliminated.
	.loc 1 29 0
	mov	r0, r0	@ nop
	bx	lr
	.cfi_endproc
.LFE0:
	.size	__aeabi_idiv, .-__aeabi_idiv
	.align	2
	.global	__aeabi_i2d
	.type	__aeabi_i2d, %function
__aeabi_i2d:
.LFB1:
	.loc 1 30 0
	.cfi_startproc
	@ Function supports interworking.
	@ args = 0, pretend = 0, frame = 0
	@ frame_needed = 0, uses_anonymous_args = 0
	@ link register save eliminated.
	.loc 1 30 0
	mov	r0, r0	@ nop
	bx	lr
	.cfi_endproc
.LFE1:
	.size	__aeabi_i2d, .-__aeabi_i2d
	.align	2
	.global	__aeabi_uidivmod
	.type	__aeabi_uidivmod, %function
__aeabi_uidivmod:
.LFB2:
	.loc 1 31 0
	.cfi_startproc
	@ Function supports interworking.
	@ args = 0, pretend = 0, frame = 0
	@ frame_needed = 0, uses_anonymous_args = 0
	@ link register save eliminated.
	.loc 1 31 0
	mov	r0, r0	@ nop
	bx	lr
	.cfi_endproc
.LFE2:
	.size	__aeabi_uidivmod, .-__aeabi_uidivmod
	.align	2
	.global	__aeabi_fcmpge
	.type	__aeabi_fcmpge, %function
__aeabi_fcmpge:
.LFB3:
	.loc 1 32 0
	.cfi_startproc
	@ Function supports interworking.
	@ args = 0, pretend = 0, frame = 0
	@ frame_needed = 0, uses_anonymous_args = 0
	@ link register save eliminated.
	.loc 1 32 0
	mov	r0, r0	@ nop
	bx	lr
	.cfi_endproc
.LFE3:
	.size	__aeabi_fcmpge, .-__aeabi_fcmpge
	.align	2
	.global	__aeabi_i2f
	.type	__aeabi_i2f, %function
__aeabi_i2f:
.LFB4:
	.loc 1 33 0
	.cfi_startproc
	@ Function supports interworking.
	@ args = 0, pretend = 0, frame = 0
	@ frame_needed = 0, uses_anonymous_args = 0
	@ link register save eliminated.
	.loc 1 33 0
	mov	r0, r0	@ nop
	bx	lr
	.cfi_endproc
.LFE4:
	.size	__aeabi_i2f, .-__aeabi_i2f
	.align	2
	.global	__aeabi_ddiv
	.type	__aeabi_ddiv, %function
__aeabi_ddiv:
.LFB5:
	.loc 1 37 0
	.cfi_startproc
	@ Function supports interworking.
	@ args = 0, pretend = 0, frame = 0
	@ frame_needed = 0, uses_anonymous_args = 0
	@ link register save eliminated.
	.loc 1 37 0
	mov	r0, r0	@ nop
	bx	lr
	.cfi_endproc
.LFE5:
	.size	__aeabi_ddiv, .-__aeabi_ddiv
	.align	2
	.global	__aeabi_dsub
	.type	__aeabi_dsub, %function
__aeabi_dsub:
.LFB6:
	.loc 1 38 0
	.cfi_startproc
	@ Function supports interworking.
	@ args = 0, pretend = 0, frame = 0
	@ frame_needed = 0, uses_anonymous_args = 0
	@ link register save eliminated.
	.loc 1 38 0
	mov	r0, r0	@ nop
	bx	lr
	.cfi_endproc
.LFE6:
	.size	__aeabi_dsub, .-__aeabi_dsub
	.align	2
	.global	__aeabi_dmul
	.type	__aeabi_dmul, %function
__aeabi_dmul:
.LFB7:
	.loc 1 39 0
	.cfi_startproc
	@ Function supports interworking.
	@ args = 0, pretend = 0, frame = 0
	@ frame_needed = 0, uses_anonymous_args = 0
	@ link register save eliminated.
	.loc 1 39 0
	mov	r0, r0	@ nop
	bx	lr
	.cfi_endproc
.LFE7:
	.size	__aeabi_dmul, .-__aeabi_dmul
	.align	2
	.global	__aeabi_dcmpge
	.type	__aeabi_dcmpge, %function
__aeabi_dcmpge:
.LFB8:
	.loc 1 40 0
	.cfi_startproc
	@ Function supports interworking.
	@ args = 0, pretend = 0, frame = 0
	@ frame_needed = 0, uses_anonymous_args = 0
	@ link register save eliminated.
	.loc 1 40 0
	mov	r0, r0	@ nop
	bx	lr
	.cfi_endproc
.LFE8:
	.size	__aeabi_dcmpge, .-__aeabi_dcmpge
	.align	2
	.global	__aeabi_dcmpeq
	.type	__aeabi_dcmpeq, %function
__aeabi_dcmpeq:
.LFB9:
	.loc 1 41 0
	.cfi_startproc
	@ Function supports interworking.
	@ args = 0, pretend = 0, frame = 0
	@ frame_needed = 0, uses_anonymous_args = 0
	@ link register save eliminated.
	.loc 1 41 0
	mov	r0, r0	@ nop
	bx	lr
	.cfi_endproc
.LFE9:
	.size	__aeabi_dcmpeq, .-__aeabi_dcmpeq
	.align	2
	.global	__aeabi_dcmpgt
	.type	__aeabi_dcmpgt, %function
__aeabi_dcmpgt:
.LFB10:
	.loc 1 42 0
	.cfi_startproc
	@ Function supports interworking.
	@ args = 0, pretend = 0, frame = 0
	@ frame_needed = 0, uses_anonymous_args = 0
	@ link register save eliminated.
	.loc 1 42 0
	mov	r0, r0	@ nop
	bx	lr
	.cfi_endproc
.LFE10:
	.size	__aeabi_dcmpgt, .-__aeabi_dcmpgt
	.align	2
	.global	__aeabi_dcmple
	.type	__aeabi_dcmple, %function
__aeabi_dcmple:
.LFB11:
	.loc 1 43 0
	.cfi_startproc
	@ Function supports interworking.
	@ args = 0, pretend = 0, frame = 0
	@ frame_needed = 0, uses_anonymous_args = 0
	@ link register save eliminated.
	.loc 1 43 0
	mov	r0, r0	@ nop
	bx	lr
	.cfi_endproc
.LFE11:
	.size	__aeabi_dcmple, .-__aeabi_dcmple
	.align	2
	.global	__aeabi_d2f
	.type	__aeabi_d2f, %function
__aeabi_d2f:
.LFB12:
	.loc 1 44 0
	.cfi_startproc
	@ Function supports interworking.
	@ args = 0, pretend = 0, frame = 0
	@ frame_needed = 0, uses_anonymous_args = 0
	@ link register save eliminated.
	.loc 1 44 0
	mov	r0, r0	@ nop
	bx	lr
	.cfi_endproc
.LFE12:
	.size	__aeabi_d2f, .-__aeabi_d2f
	.align	2
	.global	__aeabi_dadd
	.type	__aeabi_dadd, %function
__aeabi_dadd:
.LFB13:
	.loc 1 45 0
	.cfi_startproc
	@ Function supports interworking.
	@ args = 0, pretend = 0, frame = 0
	@ frame_needed = 0, uses_anonymous_args = 0
	@ link register save eliminated.
	.loc 1 45 0
	mov	r0, r0	@ nop
	bx	lr
	.cfi_endproc
.LFE13:
	.size	__aeabi_dadd, .-__aeabi_dadd
	.align	2
	.global	__aeabi_d2iz
	.type	__aeabi_d2iz, %function
__aeabi_d2iz:
.LFB14:
	.loc 1 46 0
	.cfi_startproc
	@ Function supports interworking.
	@ args = 0, pretend = 0, frame = 0
	@ frame_needed = 0, uses_anonymous_args = 0
	@ link register save eliminated.
	.loc 1 46 0
	mov	r0, r0	@ nop
	bx	lr
	.cfi_endproc
.LFE14:
	.size	__aeabi_d2iz, .-__aeabi_d2iz
	.align	2
	.global	__aeabi_fcmplt
	.type	__aeabi_fcmplt, %function
__aeabi_fcmplt:
.LFB15:
	.loc 1 49 0
	.cfi_startproc
	@ Function supports interworking.
	@ args = 0, pretend = 0, frame = 0
	@ frame_needed = 0, uses_anonymous_args = 0
	@ link register save eliminated.
	.loc 1 49 0
	mov	r0, r0	@ nop
	bx	lr
	.cfi_endproc
.LFE15:
	.size	__aeabi_fcmplt, .-__aeabi_fcmplt
	.align	2
	.global	__aeabi_fcmpgt
	.type	__aeabi_fcmpgt, %function
__aeabi_fcmpgt:
.LFB16:
	.loc 1 50 0
	.cfi_startproc
	@ Function supports interworking.
	@ args = 0, pretend = 0, frame = 0
	@ frame_needed = 0, uses_anonymous_args = 0
	@ link register save eliminated.
	.loc 1 50 0
	mov	r0, r0	@ nop
	bx	lr
	.cfi_endproc
.LFE16:
	.size	__aeabi_fcmpgt, .-__aeabi_fcmpgt
	.align	2
	.global	__aeabi_fdiv
	.type	__aeabi_fdiv, %function
__aeabi_fdiv:
.LFB17:
	.loc 1 51 0
	.cfi_startproc
	@ Function supports interworking.
	@ args = 0, pretend = 0, frame = 0
	@ frame_needed = 0, uses_anonymous_args = 0
	@ link register save eliminated.
	.loc 1 51 0
	mov	r0, r0	@ nop
	bx	lr
	.cfi_endproc
.LFE17:
	.size	__aeabi_fdiv, .-__aeabi_fdiv
	.align	2
	.global	__aeabi_fcmpeq
	.type	__aeabi_fcmpeq, %function
__aeabi_fcmpeq:
.LFB18:
	.loc 1 52 0
	.cfi_startproc
	@ Function supports interworking.
	@ args = 0, pretend = 0, frame = 0
	@ frame_needed = 0, uses_anonymous_args = 0
	@ link register save eliminated.
	.loc 1 52 0
	mov	r0, r0	@ nop
	bx	lr
	.cfi_endproc
.LFE18:
	.size	__aeabi_fcmpeq, .-__aeabi_fcmpeq
	.align	2
	.global	__aeabi_fmul
	.type	__aeabi_fmul, %function
__aeabi_fmul:
.LFB19:
	.loc 1 53 0
	.cfi_startproc
	@ Function supports interworking.
	@ args = 0, pretend = 0, frame = 0
	@ frame_needed = 0, uses_anonymous_args = 0
	@ link register save eliminated.
	.loc 1 53 0
	mov	r0, r0	@ nop
	bx	lr
	.cfi_endproc
.LFE19:
	.size	__aeabi_fmul, .-__aeabi_fmul
	.align	2
	.global	__aeabi_fsub
	.type	__aeabi_fsub, %function
__aeabi_fsub:
.LFB20:
	.loc 1 54 0
	.cfi_startproc
	@ Function supports interworking.
	@ args = 0, pretend = 0, frame = 0
	@ frame_needed = 0, uses_anonymous_args = 0
	@ link register save eliminated.
	.loc 1 54 0
	mov	r0, r0	@ nop
	bx	lr
	.cfi_endproc
.LFE20:
	.size	__aeabi_fsub, .-__aeabi_fsub
	.align	2
	.global	__aeabi_f2d
	.type	__aeabi_f2d, %function
__aeabi_f2d:
.LFB21:
	.loc 1 55 0
	.cfi_startproc
	@ Function supports interworking.
	@ args = 0, pretend = 0, frame = 0
	@ frame_needed = 0, uses_anonymous_args = 0
	@ link register save eliminated.
	.loc 1 55 0
	mov	r0, r0	@ nop
	bx	lr
	.cfi_endproc
.LFE21:
	.size	__aeabi_f2d, .-__aeabi_f2d
	.align	2
	.global	__aeabi_fadd
	.type	__aeabi_fadd, %function
__aeabi_fadd:
.LFB22:
	.loc 1 56 0
	.cfi_startproc
	@ Function supports interworking.
	@ args = 0, pretend = 0, frame = 0
	@ frame_needed = 0, uses_anonymous_args = 0
	@ link register save eliminated.
	.loc 1 56 0
	mov	r0, r0	@ nop
	bx	lr
	.cfi_endproc
.LFE22:
	.size	__aeabi_fadd, .-__aeabi_fadd
	.align	2
	.global	__aeabi_ui2
	.type	__aeabi_ui2, %function
__aeabi_ui2:
.LFB23:
	.loc 1 59 0
	.cfi_startproc
	@ Function supports interworking.
	@ args = 0, pretend = 0, frame = 0
	@ frame_needed = 0, uses_anonymous_args = 0
	@ link register save eliminated.
	.loc 1 59 0
	mov	r0, r0	@ nop
	bx	lr
	.cfi_endproc
.LFE23:
	.size	__aeabi_ui2, .-__aeabi_ui2
	.align	2
	.global	__aeabi_ui2d
	.type	__aeabi_ui2d, %function
__aeabi_ui2d:
.LFB24:
	.loc 1 60 0
	.cfi_startproc
	@ Function supports interworking.
	@ args = 0, pretend = 0, frame = 0
	@ frame_needed = 0, uses_anonymous_args = 0
	@ link register save eliminated.
	.loc 1 60 0
	mov	r0, r0	@ nop
	bx	lr
	.cfi_endproc
.LFE24:
	.size	__aeabi_ui2d, .-__aeabi_ui2d
	.align	2
	.global	__aeabi_dcmpun
	.type	__aeabi_dcmpun, %function
__aeabi_dcmpun:
.LFB25:
	.loc 1 62 0
	.cfi_startproc
	@ Function supports interworking.
	@ args = 0, pretend = 0, frame = 0
	@ frame_needed = 0, uses_anonymous_args = 0
	@ link register save eliminated.
	.loc 1 62 0
	mov	r0, r0	@ nop
	bx	lr
	.cfi_endproc
.LFE25:
	.size	__aeabi_dcmpun, .-__aeabi_dcmpun
	.align	2
	.global	__aeabi_dcmplt
	.type	__aeabi_dcmplt, %function
__aeabi_dcmplt:
.LFB26:
	.loc 1 63 0
	.cfi_startproc
	@ Function supports interworking.
	@ args = 0, pretend = 0, frame = 0
	@ frame_needed = 0, uses_anonymous_args = 0
	@ link register save eliminated.
	.loc 1 63 0
	mov	r0, r0	@ nop
	bx	lr
	.cfi_endproc
.LFE26:
	.size	__aeabi_dcmplt, .-__aeabi_dcmplt
	.comm	RIGHT_WHEEL_PORT,4,4
	.comm	LEFT_WHEEL_PORT,4,4
	.comm	RIGHT_LIGHT_SENSOR,4,4
	.comm	LEFT_LIGHT_SENSOR,4,4
	.comm	SONAR_SENSOR,4,4
	.bss
	.align	2
sens_white_cal_right:
	.space	4
	.align	2
sens_white_cal_left:
	.space	4
	.align	2
sens_black_cal_right:
	.space	4
	.align	2
sens_black_cal_left:
	.space	4
	.align	2
multi_task_obst:
	.space	4
	.global	TerminateTask
	.align	2
	.type	TerminateTask, %object
	.size	TerminateTask, 4
TerminateTask:
	.space	4
	.text
	.align	2
	.global	strlen
	.type	strlen, %function
strlen:
.LFB27:
	.file 2 "high_check.c"
	.loc 2 85 0
	.cfi_startproc
	@ Function supports interworking.
	@ args = 0, pretend = 0, frame = 16
	@ frame_needed = 0, uses_anonymous_args = 0
	@ link register save eliminated.
	sub	sp, sp, #16
	.cfi_def_cfa_offset 16
	str	r0, [sp, #4]
	.loc 2 86 0
	ldr	r3, [sp, #4]
	cmp	r3, #0
	bne	.L29
	.loc 2 87 0
	mov	r3, #0
	b	.L30
.L29:
	.loc 2 89 0
	ldr	r3, [sp, #4]
	str	r3, [sp, #12]
	.loc 2 90 0
	b	.L31
.L32:
	.loc 2 91 0
	.syntax divided
@ 91 "high_check.c" 1
	1:
        .section .wcet_annot
        .long 1b
        .long 1
        .long 10
                        .text
@ 0 "" 2
	.loc 2 92 0
	.arm
	.syntax divided
	ldr	r3, [sp, #4]
	add	r3, r3, #1
	str	r3, [sp, #4]
.L31:
	.loc 2 90 0
	ldr	r3, [sp, #4]
	cmp	r3, #0
	bne	.L32
	.loc 2 95 0
	ldr	r2, [sp, #4]
	ldr	r3, [sp, #12]
	rsb	r3, r3, r2
.L30:
	.loc 2 96 0
	mov	r0, r3
	add	sp, sp, #16
	.cfi_def_cfa_offset 0
	@ sp needed
	bx	lr
	.cfi_endproc
.LFE27:
	.size	strlen, .-strlen
	.align	2
	.global	ecrobot_get_light_sensor
	.type	ecrobot_get_light_sensor, %function
ecrobot_get_light_sensor:
.LFB28:
	.loc 2 101 0
	.cfi_startproc
	@ Function supports interworking.
	@ args = 0, pretend = 0, frame = 8
	@ frame_needed = 0, uses_anonymous_args = 0
	@ link register save eliminated.
	sub	sp, sp, #8
	.cfi_def_cfa_offset 8
	str	r0, [sp, #4]
	.loc 2 102 0
	ldr	r3, [sp, #4]
	.loc 2 103 0
	mov	r0, r3
	add	sp, sp, #8
	.cfi_def_cfa_offset 0
	@ sp needed
	bx	lr
	.cfi_endproc
.LFE28:
	.size	ecrobot_get_light_sensor, .-ecrobot_get_light_sensor
	.bss
	.align	2
display_array:
	.space	10200
	.data
	.align	2
	.type	display_buffer, %object
	.size	display_buffer, 4
display_buffer:
	.word	display_array
	.section	.rodata
	.align	2
	.type	font, %object
	.size	font, 2560
font:
	.word	62
	.word	54
	.word	42
	.word	54
	.word	62
	.word	62
	.word	85
	.word	97
	.word	85
	.word	62
	.word	62
	.word	107
	.word	95
	.word	107
	.word	62
	.word	12
	.word	30
	.word	60
	.word	30
	.word	12
	.word	8
	.word	28
	.word	62
	.word	28
	.word	8
	.word	24
	.word	94
	.word	126
	.word	94
	.word	24
	.word	24
	.word	92
	.word	126
	.word	92
	.word	24
	.word	62
	.word	54
	.word	42
	.word	54
	.word	62
	.word	62
	.word	54
	.word	42
	.word	54
	.word	62
	.word	62
	.word	54
	.word	42
	.word	54
	.word	62
	.word	62
	.word	54
	.word	42
	.word	54
	.word	62
	.word	62
	.word	54
	.word	42
	.word	54
	.word	62
	.word	62
	.word	54
	.word	42
	.word	54
	.word	62
	.word	62
	.word	54
	.word	42
	.word	54
	.word	62
	.word	62
	.word	54
	.word	42
	.word	54
	.word	62
	.word	62
	.word	54
	.word	42
	.word	54
	.word	62
	.word	62
	.word	54
	.word	42
	.word	54
	.word	62
	.word	62
	.word	54
	.word	42
	.word	54
	.word	62
	.word	62
	.word	54
	.word	42
	.word	54
	.word	62
	.word	62
	.word	54
	.word	42
	.word	54
	.word	62
	.word	62
	.word	54
	.word	42
	.word	54
	.word	62
	.word	62
	.word	54
	.word	42
	.word	54
	.word	62
	.word	62
	.word	54
	.word	42
	.word	54
	.word	62
	.word	62
	.word	54
	.word	42
	.word	54
	.word	62
	.word	62
	.word	54
	.word	42
	.word	54
	.word	62
	.word	62
	.word	54
	.word	42
	.word	54
	.word	62
	.word	62
	.word	54
	.word	42
	.word	54
	.word	62
	.word	62
	.word	54
	.word	42
	.word	54
	.word	62
	.word	62
	.word	54
	.word	42
	.word	54
	.word	62
	.word	62
	.word	54
	.word	42
	.word	54
	.word	62
	.word	62
	.word	54
	.word	42
	.word	54
	.word	62
	.word	62
	.word	54
	.word	42
	.word	54
	.word	62
	.word	0
	.word	0
	.word	0
	.word	0
	.word	0
	.word	0
	.word	0
	.word	95
	.word	0
	.word	0
	.word	0
	.word	7
	.word	0
	.word	7
	.word	0
	.word	20
	.word	62
	.word	20
	.word	62
	.word	20
	.word	4
	.word	42
	.word	127
	.word	42
	.word	16
	.word	38
	.word	22
	.word	8
	.word	52
	.word	50
	.word	54
	.word	73
	.word	89
	.word	38
	.word	80
	.word	0
	.word	0
	.word	7
	.word	0
	.word	0
	.word	0
	.word	28
	.word	34
	.word	65
	.word	0
	.word	0
	.word	65
	.word	34
	.word	28
	.word	0
	.word	42
	.word	28
	.word	127
	.word	28
	.word	42
	.word	8
	.word	8
	.word	62
	.word	8
	.word	8
	.word	0
	.word	80
	.word	48
	.word	0
	.word	0
	.word	8
	.word	8
	.word	8
	.word	8
	.word	8
	.word	0
	.word	96
	.word	96
	.word	0
	.word	0
	.word	32
	.word	16
	.word	8
	.word	4
	.word	2
	.word	62
	.word	81
	.word	73
	.word	69
	.word	62
	.word	0
	.word	66
	.word	127
	.word	64
	.word	0
	.word	66
	.word	97
	.word	81
	.word	73
	.word	70
	.word	33
	.word	65
	.word	69
	.word	75
	.word	49
	.word	24
	.word	20
	.word	18
	.word	127
	.word	16
	.word	39
	.word	69
	.word	69
	.word	69
	.word	57
	.word	60
	.word	74
	.word	73
	.word	73
	.word	48
	.word	1
	.word	1
	.word	121
	.word	5
	.word	3
	.word	54
	.word	73
	.word	73
	.word	73
	.word	54
	.word	6
	.word	73
	.word	73
	.word	41
	.word	30
	.word	0
	.word	54
	.word	54
	.word	0
	.word	0
	.word	0
	.word	86
	.word	54
	.word	0
	.word	0
	.word	8
	.word	20
	.word	34
	.word	65
	.word	0
	.word	20
	.word	20
	.word	20
	.word	20
	.word	20
	.word	65
	.word	34
	.word	20
	.word	8
	.word	0
	.word	2
	.word	1
	.word	89
	.word	5
	.word	2
	.word	28
	.word	42
	.word	54
	.word	62
	.word	12
	.word	126
	.word	9
	.word	9
	.word	9
	.word	126
	.word	127
	.word	73
	.word	73
	.word	73
	.word	62
	.word	62
	.word	65
	.word	65
	.word	65
	.word	34
	.word	127
	.word	65
	.word	65
	.word	34
	.word	28
	.word	127
	.word	73
	.word	73
	.word	73
	.word	65
	.word	127
	.word	9
	.word	9
	.word	9
	.word	1
	.word	62
	.word	65
	.word	65
	.word	73
	.word	58
	.word	127
	.word	8
	.word	8
	.word	8
	.word	127
	.word	0
	.word	65
	.word	127
	.word	65
	.word	0
	.word	32
	.word	64
	.word	65
	.word	63
	.word	1
	.word	127
	.word	8
	.word	20
	.word	34
	.word	65
	.word	127
	.word	64
	.word	64
	.word	64
	.word	64
	.word	127
	.word	2
	.word	4
	.word	2
	.word	127
	.word	127
	.word	4
	.word	8
	.word	16
	.word	127
	.word	62
	.word	65
	.word	65
	.word	65
	.word	62
	.word	127
	.word	9
	.word	9
	.word	9
	.word	6
	.word	62
	.word	65
	.word	81
	.word	33
	.word	94
	.word	127
	.word	9
	.word	25
	.word	41
	.word	70
	.word	38
	.word	73
	.word	73
	.word	73
	.word	50
	.word	1
	.word	1
	.word	127
	.word	1
	.word	1
	.word	63
	.word	64
	.word	64
	.word	64
	.word	63
	.word	31
	.word	32
	.word	64
	.word	32
	.word	31
	.word	127
	.word	32
	.word	24
	.word	32
	.word	127
	.word	99
	.word	20
	.word	8
	.word	20
	.word	99
	.word	3
	.word	4
	.word	120
	.word	4
	.word	3
	.word	97
	.word	81
	.word	73
	.word	69
	.word	67
	.word	0
	.word	127
	.word	65
	.word	65
	.word	0
	.word	2
	.word	4
	.word	8
	.word	16
	.word	32
	.word	0
	.word	65
	.word	65
	.word	127
	.word	0
	.word	4
	.word	2
	.word	1
	.word	2
	.word	4
	.word	64
	.word	64
	.word	64
	.word	64
	.word	64
	.word	0
	.word	0
	.word	7
	.word	0
	.word	0
	.word	32
	.word	84
	.word	84
	.word	84
	.word	120
	.word	127
	.word	72
	.word	68
	.word	68
	.word	56
	.word	48
	.word	72
	.word	72
	.word	72
	.word	32
	.word	56
	.word	68
	.word	68
	.word	72
	.word	127
	.word	56
	.word	84
	.word	84
	.word	84
	.word	24
	.word	8
	.word	126
	.word	9
	.word	9
	.word	2
	.word	12
	.word	82
	.word	82
	.word	82
	.word	62
	.word	127
	.word	8
	.word	4
	.word	4
	.word	120
	.word	0
	.word	68
	.word	125
	.word	64
	.word	0
	.word	32
	.word	64
	.word	64
	.word	61
	.word	0
	.word	127
	.word	16
	.word	40
	.word	68
	.word	0
	.word	0
	.word	65
	.word	127
	.word	64
	.word	0
	.word	124
	.word	4
	.word	24
	.word	4
	.word	120
	.word	124
	.word	8
	.word	4
	.word	4
	.word	120
	.word	56
	.word	68
	.word	68
	.word	68
	.word	56
	.word	252
	.word	20
	.word	20
	.word	20
	.word	8
	.word	8
	.word	20
	.word	20
	.word	24
	.word	124
	.word	124
	.word	8
	.word	4
	.word	4
	.word	8
	.word	72
	.word	84
	.word	84
	.word	84
	.word	32
	.word	4
	.word	63
	.word	68
	.word	64
	.word	32
	.word	60
	.word	64
	.word	64
	.word	32
	.word	124
	.word	28
	.word	32
	.word	64
	.word	32
	.word	28
	.word	60
	.word	64
	.word	56
	.word	64
	.word	60
	.word	68
	.word	40
	.word	16
	.word	40
	.word	68
	.word	12
	.word	80
	.word	80
	.word	80
	.word	60
	.word	68
	.word	100
	.word	84
	.word	76
	.word	68
	.word	0
	.word	8
	.word	54
	.word	65
	.word	0
	.word	0
	.word	0
	.word	127
	.word	0
	.word	0
	.word	0
	.word	65
	.word	54
	.word	8
	.word	0
	.word	0
	.word	7
	.word	0
	.word	7
	.word	0
	.word	62
	.word	54
	.word	42
	.word	54
	.word	62
	.comm	display_x,4,4
	.comm	display_y,4,4
	.text
	.align	2
	.global	display_goto_xy
	.type	display_goto_xy, %function
display_goto_xy:
.LFB29:
	.loc 2 251 0
	.cfi_startproc
	@ Function supports interworking.
	@ args = 0, pretend = 0, frame = 8
	@ frame_needed = 0, uses_anonymous_args = 0
	@ link register save eliminated.
	sub	sp, sp, #8
	.cfi_def_cfa_offset 8
	str	r0, [sp, #4]
	str	r1, [sp]
	.loc 2 252 0
	ldr	r2, .L36
	ldr	r3, [sp, #4]
	str	r3, [r2]
	.loc 2 253 0
	ldr	r2, .L36+4
	ldr	r3, [sp]
	str	r3, [r2]
	.loc 2 254 0
	mov	r0, r0	@ nop
	add	sp, sp, #8
	.cfi_def_cfa_offset 0
	@ sp needed
	bx	lr
.L37:
	.align	2
.L36:
	.word	display_x
	.word	display_y
	.cfi_endproc
.LFE29:
	.size	display_goto_xy, .-display_goto_xy
	.align	2
	.global	display_char
	.type	display_char, %function
display_char:
.LFB30:
	.loc 2 258 0
	.cfi_startproc
	@ Function supports interworking.
	@ args = 0, pretend = 0, frame = 24
	@ frame_needed = 0, uses_anonymous_args = 0
	@ link register save eliminated.
	sub	sp, sp, #24
	.cfi_def_cfa_offset 24
	str	r0, [sp, #4]
	.loc 2 263 0
	ldr	r3, [sp, #4]
	cmp	r3, #0
	blt	.L42
	.loc 2 263 0 is_stmt 0 discriminator 1
	ldr	r3, [sp, #4]
	cmp	r3, #127
	bgt	.L42
	.loc 2 264 0 is_stmt 1 discriminator 2
	ldr	r3, .L43
	ldr	r3, [r3]
	.loc 2 263 0 discriminator 2
	cmp	r3, #0
	blt	.L42
	.loc 2 264 0
	ldr	r3, .L43
	ldr	r3, [r3]
	cmp	r3, #7
	bgt	.L42
	.loc 2 265 0 discriminator 1
	ldr	r3, .L43+4
	ldr	r3, [r3]
	.loc 2 264 0 discriminator 1
	cmp	r3, #0
	blt	.L42
	.loc 2 265 0
	ldr	r3, .L43+4
	ldr	r3, [r3]
	cmp	r3, #49
	bgt	.L42
	.loc 2 266 0
	ldr	r3, .L43+8
	ldr	r2, [r3]
	ldr	r3, .L43+4
	ldr	r3, [r3]
	mov	r1, r3
	mov	r3, r1
	mov	r3, r3, asl #2
	add	r3, r3, r1
	mov	r1, r3, asl #2
	add	r3, r3, r1
	mov	r3, r3, asl #3
	add	r1, r2, r3
	ldr	r3, .L43
	ldr	r2, [r3]
	mov	r3, r2
	mov	r3, r3, asl #1
	add	r3, r3, r2
	mov	r3, r3, asl #1
	mov	r3, r3, asl #2
	add	r3, r1, r3
	str	r3, [sp, #16]
	.loc 2 267 0
	ldr	r2, [sp, #4]
	mov	r3, r2
	mov	r3, r3, asl #2
	add	r3, r3, r2
	mov	r3, r3, asl #2
	ldr	r2, .L43+12
	add	r3, r3, r2
	str	r3, [sp, #12]
	.loc 2 268 0
	mov	r3, #0
	str	r3, [sp, #20]
	b	.L40
.L41:
	.loc 2 269 0 discriminator 3
	.syntax divided
@ 269 "high_check.c" 1
	1:
        .section .wcet_annot
        .long 1b
        .long 1
        .long 5
                        .text
@ 0 "" 2
	.loc 2 270 0 discriminator 3
	.arm
	.syntax divided
	ldr	r3, [sp, #12]
	ldr	r2, [r3]
	ldr	r3, [sp, #16]
	str	r2, [r3]
	.loc 2 271 0 discriminator 3
	ldr	r3, [sp, #16]
	add	r3, r3, #4
	str	r3, [sp, #16]
	.loc 2 272 0 discriminator 3
	ldr	r3, [sp, #12]
	add	r3, r3, #4
	str	r3, [sp, #12]
	.loc 2 268 0 discriminator 3
	ldr	r3, [sp, #20]
	add	r3, r3, #1
	str	r3, [sp, #20]
.L40:
	.loc 2 268 0 is_stmt 0 discriminator 1
	ldr	r3, [sp, #20]
	cmp	r3, #4
	ble	.L41
.L42:
	.loc 2 275 0 is_stmt 1
	mov	r0, r0	@ nop
	add	sp, sp, #24
	.cfi_def_cfa_offset 0
	@ sp needed
	bx	lr
.L44:
	.align	2
.L43:
	.word	display_x
	.word	display_y
	.word	display_buffer
	.word	font
	.cfi_endproc
.LFE30:
	.size	display_char, .-display_char
	.align	2
	.global	display_string
	.type	display_string, %function
display_string:
.LFB31:
	.loc 2 279 0
	.cfi_startproc
	@ Function supports interworking.
	@ args = 0, pretend = 0, frame = 8
	@ frame_needed = 0, uses_anonymous_args = 0
	@ link register save eliminated.
	sub	sp, sp, #8
	.cfi_def_cfa_offset 8
	str	r0, [sp, #4]
	.loc 2 280 0
	b	.L46
.L47:
	.loc 2 281 0
	.syntax divided
@ 281 "high_check.c" 1
	1:
        .section .wcet_annot
        .long 1b
        .long 1
        .long 10
                        .text
@ 0 "" 2
	.loc 2 289 0
	.arm
	.syntax divided
	ldr	r3, [sp, #4]
	add	r3, r3, #1
	str	r3, [sp, #4]
.L46:
	.loc 2 280 0
	ldr	r3, [sp, #4]
	cmp	r3, #0
	bne	.L47
	.loc 2 291 0
	mov	r0, r0	@ nop
	add	sp, sp, #8
	.cfi_def_cfa_offset 0
	@ sp needed
	bx	lr
	.cfi_endproc
.LFE31:
	.size	display_string, .-display_string
	.align	2
	.type	display_unsigned_worker, %function
display_unsigned_worker:
.LFB32:
	.loc 2 295 0
	.cfi_startproc
	@ Function supports interworking.
	@ args = 0, pretend = 0, frame = 40
	@ frame_needed = 0, uses_anonymous_args = 0
	str	lr, [sp, #-4]!
	.cfi_def_cfa_offset 4
	.cfi_offset 14, -4
	sub	sp, sp, #44
	.cfi_def_cfa_offset 48
	str	r0, [sp, #12]
	str	r1, [sp, #8]
	str	r2, [sp, #4]
	.loc 2 298 0
	add	r3, sp, #20
	add	r3, r3, #11
	str	r3, [sp, #36]
	.loc 2 299 0
	mov	r3, #0
	str	r3, [sp, #32]
	.loc 2 302 0
	ldr	r3, [sp, #36]
	mov	r2, #0
	strb	r2, [r3]
	.loc 2 304 0
	ldr	r3, [sp, #8]
	cmp	r3, #11
	ble	.L50
	.loc 2 305 0
	mov	r3, #11
	str	r3, [sp, #8]
	.loc 2 307 0
	b	.L50
.L51:
	.loc 2 308 0
	.syntax divided
@ 308 "high_check.c" 1
	1:
        .section .wcet_annot
        .long 1b
        .long 1
        .long 10
                        .text
@ 0 "" 2
	.loc 2 309 0
	.arm
	.syntax divided
	ldr	r3, [sp, #36]
	sub	r3, r3, #1
	str	r3, [sp, #36]
	.loc 2 310 0
	ldr	r3, [sp, #32]
	add	r3, r3, #1
	str	r3, [sp, #32]
	.loc 2 311 0
	ldr	r1, [sp, #12]
	ldr	r3, .L56
	smull	r2, r3, r1, r3
	mov	r2, r3, asr #2
	mov	r3, r1, asr #31
	rsb	r2, r3, r2
	mov	r3, r2
	mov	r3, r3, asl #2
	add	r3, r3, r2
	mov	r3, r3, asl #1
	rsb	r2, r3, r1
	and	r3, r2, #255
	add	r3, r3, #48
	and	r2, r3, #255
	ldr	r3, [sp, #36]
	strb	r2, [r3]
	.loc 2 312 0
	ldr	r3, [sp, #12]
	ldr	r2, .L56
	smull	r1, r2, r3, r2
	mov	r2, r2, asr #2
	mov	r3, r3, asr #31
	rsb	r3, r3, r2
	str	r3, [sp, #12]
.L50:
	.loc 2 307 0
	ldr	r3, [sp, #12]
	cmp	r3, #0
	bne	.L51
	.loc 2 315 0
	ldr	r3, [sp, #32]
	cmp	r3, #0
	bne	.L52
	.loc 2 316 0
	ldr	r3, [sp, #36]
	sub	r3, r3, #1
	str	r3, [sp, #36]
	.loc 2 317 0
	ldr	r3, [sp, #32]
	add	r3, r3, #1
	str	r3, [sp, #32]
	.loc 2 318 0
	ldr	r3, [sp, #36]
	mov	r2, #48
	strb	r2, [r3]
.L52:
	.loc 2 321 0
	ldr	r3, [sp, #4]
	cmp	r3, #0
	beq	.L54
	.loc 2 322 0
	ldr	r3, [sp, #36]
	sub	r3, r3, #1
	str	r3, [sp, #36]
	.loc 2 323 0
	ldr	r3, [sp, #32]
	add	r3, r3, #1
	str	r3, [sp, #32]
	.loc 2 324 0
	ldr	r3, [sp, #36]
	mov	r2, #45
	strb	r2, [r3]
	.loc 2 327 0
	b	.L54
.L55:
	.loc 2 328 0
	.syntax divided
@ 328 "high_check.c" 1
	1:
        .section .wcet_annot
        .long 1b
        .long 1
        .long 11
                        .text
@ 0 "" 2
	.loc 2 329 0
	.arm
	.syntax divided
	ldr	r3, [sp, #36]
	sub	r3, r3, #1
	str	r3, [sp, #36]
	.loc 2 330 0
	ldr	r3, [sp, #32]
	add	r3, r3, #1
	str	r3, [sp, #32]
	.loc 2 331 0
	ldr	r3, [sp, #36]
	mov	r2, #32
	strb	r2, [r3]
.L54:
	.loc 2 327 0
	ldr	r2, [sp, #32]
	ldr	r3, [sp, #8]
	cmp	r2, r3
	blt	.L55
	.loc 2 334 0
	ldr	r0, [sp, #36]
	bl	display_string
	.loc 2 335 0
	mov	r0, r0	@ nop
	add	sp, sp, #44
	.cfi_def_cfa_offset 4
	@ sp needed
	ldr	lr, [sp], #4
	.cfi_restore 14
	.cfi_def_cfa_offset 0
	bx	lr
.L57:
	.align	2
.L56:
	.word	1717986919
	.cfi_endproc
.LFE32:
	.size	display_unsigned_worker, .-display_unsigned_worker
	.global	a
	.bss
	.align	2
	.type	a, %object
	.size	a, 4
a:
	.space	4
	.global	display
	.data
	.align	2
	.type	display, %object
	.size	display, 4
display:
	.word	a
	.global	dirty
	.bss
	.align	2
	.type	dirty, %object
	.size	dirty, 4
dirty:
	.space	4
	.global	mode
	.data
	.align	2
	.type	mode, %object
	.size	mode, 4
mode:
	.word	255
	.text
	.align	2
	.type	spi_set_mode, %function
spi_set_mode:
.LFB33:
	.loc 2 362 0
	.cfi_startproc
	@ Function supports interworking.
	@ args = 0, pretend = 0, frame = 24
	@ frame_needed = 0, uses_anonymous_args = 0
	@ link register save eliminated.
	sub	sp, sp, #24
	.cfi_def_cfa_offset 24
	str	r0, [sp, #4]
	.loc 2 365 0
	ldr	r3, .L64
	ldr	r3, [r3]
	ldr	r2, [sp, #4]
	cmp	r2, r3
	beq	.L63
.L59:
	.loc 2 368 0 discriminator 1
	.syntax divided
@ 368 "high_check.c" 1
	1:
        .section .wcet_annot
        .long 1b
        .long 1
        .long 1
                        .text
@ 0 "" 2
	.loc 2 369 0 discriminator 1
	.arm
	.syntax divided
	mov	r3, #0
	ldr	r3, [r3]
	str	r3, [sp, #20]
	.loc 2 370 0 discriminator 1
	ldr	r3, [sp, #20]
	and	r3, r3, #512
	cmp	r3, #0
	beq	.L59
	.loc 2 371 0
	ldr	r3, [sp, #4]
	cmp	r3, #0
	beq	.L61
.LBB2:
	.loc 2 372 0
	mov	r3, #4096
	str	r3, [sp, #16]
.LBE2:
	b	.L62
.L61:
.LBB3:
	.loc 2 375 0
	mov	r3, #4096
	str	r3, [sp, #12]
.L62:
.LBE3:
	.loc 2 377 0
	ldr	r2, .L64
	ldr	r3, [sp, #4]
	str	r3, [r2]
	b	.L58
.L63:
	.loc 2 365 0
	mov	r0, r0	@ nop
.L58:
	.loc 2 378 0
	add	sp, sp, #24
	.cfi_def_cfa_offset 0
	@ sp needed
	bx	lr
.L65:
	.align	2
.L64:
	.word	mode
	.cfi_endproc
.LFE33:
	.size	spi_set_mode, .-spi_set_mode
	.align	2
	.global	nxt_spi_write
	.type	nxt_spi_write, %function
nxt_spi_write:
.LFB34:
	.loc 2 382 0
	.cfi_startproc
	@ Function supports interworking.
	@ args = 0, pretend = 0, frame = 32
	@ frame_needed = 0, uses_anonymous_args = 0
	str	lr, [sp, #-4]!
	.cfi_def_cfa_offset 4
	.cfi_offset 14, -4
	sub	sp, sp, #36
	.cfi_def_cfa_offset 40
	str	r0, [sp, #12]
	str	r1, [sp, #8]
	str	r2, [sp, #4]
	.loc 2 384 0
	ldr	r3, [sp, #12]
	cmp	r3, #0
	beq	.L67
	.loc 2 384 0 is_stmt 0 discriminator 1
	mov	r3, #256
	b	.L68
.L67:
	.loc 2 384 0 discriminator 2
	mov	r3, #0
.L68:
	.loc 2 384 0 discriminator 4
	str	r3, [sp, #28]
	.loc 2 386 0 is_stmt 1 discriminator 4
	ldr	r0, [sp, #12]
	bl	spi_set_mode
	.loc 2 387 0 discriminator 4
	b	.L69
.L71:
.LBB4:
	.loc 2 388 0
	.syntax divided
@ 388 "high_check.c" 1
	1:
        .section .wcet_annot
        .long 1b
        .long 1
        .long 1
                        .text
@ 0 "" 2
	.loc 2 389 0
	.arm
	.syntax divided
	ldr	r3, [sp, #28]
	str	r3, [sp, #24]
	.loc 2 390 0
	ldr	r3, [sp, #8]
	add	r3, r3, #4
	str	r3, [sp, #8]
	.loc 2 391 0
	ldr	r3, [sp, #4]
	sub	r3, r3, #1
	str	r3, [sp, #4]
.L70:
	.loc 2 393 0 discriminator 1
	mov	r3, #1
	str	r3, [sp, #20]
	.loc 2 394 0 discriminator 1
	ldr	r3, [sp, #20]
	and	r3, r3, #512
	cmp	r3, #0
	beq	.L70
.L69:
.LBE4:
	.loc 2 387 0
	ldr	r3, [sp, #4]
	cmp	r3, #0
	bne	.L71
	.loc 2 397 0
	mov	r0, r0	@ nop
	add	sp, sp, #36
	.cfi_def_cfa_offset 4
	@ sp needed
	ldr	lr, [sp], #4
	.cfi_restore 14
	.cfi_def_cfa_offset 0
	bx	lr
	.cfi_endproc
.LFE34:
	.size	nxt_spi_write, .-nxt_spi_write
	.align	2
	.global	nxt_spi_refresh
	.type	nxt_spi_refresh, %function
nxt_spi_refresh:
.LFB35:
	.loc 2 401 0
	.cfi_startproc
	@ Function supports interworking.
	@ args = 0, pretend = 0, frame = 8
	@ frame_needed = 0, uses_anonymous_args = 0
	@ link register save eliminated.
	sub	sp, sp, #8
	.cfi_def_cfa_offset 8
	.loc 2 402 0
	ldr	r3, .L76
	ldr	r3, [r3]
	cmp	r3, #0
	beq	.L75
	.loc 2 403 0
	ldr	r3, .L76+4
	mov	r2, #1
	str	r2, [r3]
	.loc 2 404 0
	mov	r3, #1
	str	r3, [sp, #4]
	b	.L72
.L75:
	.loc 2 402 0
	mov	r0, r0	@ nop
.L72:
	.loc 2 407 0
	add	sp, sp, #8
	.cfi_def_cfa_offset 0
	@ sp needed
	bx	lr
.L77:
	.align	2
.L76:
	.word	display
	.word	dirty
	.cfi_endproc
.LFE35:
	.size	nxt_spi_refresh, .-nxt_spi_refresh
	.align	2
	.global	nxt_lcd_command
	.type	nxt_lcd_command, %function
nxt_lcd_command:
.LFB36:
	.loc 2 413 0
	.cfi_startproc
	@ Function supports interworking.
	@ args = 0, pretend = 0, frame = 16
	@ frame_needed = 0, uses_anonymous_args = 0
	str	lr, [sp, #-4]!
	.cfi_def_cfa_offset 4
	.cfi_offset 14, -4
	sub	sp, sp, #20
	.cfi_def_cfa_offset 24
	str	r0, [sp, #4]
	.loc 2 414 0
	ldr	r3, [sp, #4]
	str	r3, [sp, #12]
	.loc 2 416 0
	add	r3, sp, #12
	mov	r2, #1
	mov	r1, r3
	mov	r0, #0
	bl	nxt_spi_write
	.loc 2 417 0
	mov	r0, r0	@ nop
	add	sp, sp, #20
	.cfi_def_cfa_offset 4
	@ sp needed
	ldr	lr, [sp], #4
	.cfi_restore 14
	.cfi_def_cfa_offset 0
	bx	lr
	.cfi_endproc
.LFE36:
	.size	nxt_lcd_command, .-nxt_lcd_command
	.align	2
	.global	nxt_lcd_set_col
	.type	nxt_lcd_set_col, %function
nxt_lcd_set_col:
.LFB37:
	.loc 2 421 0
	.cfi_startproc
	@ Function supports interworking.
	@ args = 0, pretend = 0, frame = 8
	@ frame_needed = 0, uses_anonymous_args = 0
	str	lr, [sp, #-4]!
	.cfi_def_cfa_offset 4
	.cfi_offset 14, -4
	sub	sp, sp, #12
	.cfi_def_cfa_offset 16
	str	r0, [sp, #4]
	.loc 2 422 0
	ldr	r3, [sp, #4]
	and	r3, r3, #15
	mov	r0, r3
	bl	nxt_lcd_command
	.loc 2 423 0
	ldr	r3, [sp, #4]
	mov	r3, r3, asr #4
	and	r3, r3, #15
	orr	r3, r3, #16
	mov	r0, r3
	bl	nxt_lcd_command
	.loc 2 424 0
	mov	r0, r0	@ nop
	add	sp, sp, #12
	.cfi_def_cfa_offset 4
	@ sp needed
	ldr	lr, [sp], #4
	.cfi_restore 14
	.cfi_def_cfa_offset 0
	bx	lr
	.cfi_endproc
.LFE37:
	.size	nxt_lcd_set_col, .-nxt_lcd_set_col
	.align	2
	.global	nxt_lcd_set_page_address
	.type	nxt_lcd_set_page_address, %function
nxt_lcd_set_page_address:
.LFB38:
	.loc 2 428 0
	.cfi_startproc
	@ Function supports interworking.
	@ args = 0, pretend = 0, frame = 8
	@ frame_needed = 0, uses_anonymous_args = 0
	str	lr, [sp, #-4]!
	.cfi_def_cfa_offset 4
	.cfi_offset 14, -4
	sub	sp, sp, #12
	.cfi_def_cfa_offset 16
	str	r0, [sp, #4]
	.loc 2 429 0
	ldr	r3, [sp, #4]
	and	r3, r3, #15
	orr	r3, r3, #176
	mov	r0, r3
	bl	nxt_lcd_command
	.loc 2 430 0
	mov	r0, r0	@ nop
	add	sp, sp, #12
	.cfi_def_cfa_offset 4
	@ sp needed
	ldr	lr, [sp], #4
	.cfi_restore 14
	.cfi_def_cfa_offset 0
	bx	lr
	.cfi_endproc
.LFE38:
	.size	nxt_lcd_set_page_address, .-nxt_lcd_set_page_address
	.align	2
	.global	nxt_lcd_force_update
	.type	nxt_lcd_force_update, %function
nxt_lcd_force_update:
.LFB39:
	.loc 2 433 0
	.cfi_startproc
	@ Function supports interworking.
	@ args = 0, pretend = 0, frame = 8
	@ frame_needed = 0, uses_anonymous_args = 0
	str	lr, [sp, #-4]!
	.cfi_def_cfa_offset 4
	.cfi_offset 14, -4
	sub	sp, sp, #12
	.cfi_def_cfa_offset 16
	.loc 2 437 0
	ldr	r3, .L84
	str	r3, [sp]
	.loc 2 439 0
	mov	r3, #0
	str	r3, [sp, #4]
	b	.L82
.L83:
	.loc 2 440 0 discriminator 3
	.syntax divided
@ 440 "high_check.c" 1
	1:
        .section .wcet_annot
        .long 1b
        .long 1
        .long 50
                        .text
@ 0 "" 2
	.loc 2 441 0 discriminator 3
	.arm
	.syntax divided
	mov	r0, #0
	bl	nxt_lcd_set_col
	.loc 2 442 0 discriminator 3
	ldr	r0, [sp, #4]
	bl	nxt_lcd_set_page_address
	.loc 2 444 0 discriminator 3
	mov	r2, #50
	ldr	r1, [sp]
	mov	r0, #1
	bl	nxt_spi_write
	.loc 2 445 0 discriminator 3
	ldr	r3, [sp]
	add	r3, r3, #200
	str	r3, [sp]
	.loc 2 439 0 discriminator 3
	ldr	r3, [sp, #4]
	add	r3, r3, #1
	str	r3, [sp, #4]
.L82:
	.loc 2 439 0 is_stmt 0 discriminator 1
	ldr	r3, [sp, #4]
	cmp	r3, #49
	ble	.L83
	.loc 2 447 0 is_stmt 1
	mov	r0, r0	@ nop
	add	sp, sp, #12
	.cfi_def_cfa_offset 4
	@ sp needed
	ldr	lr, [sp], #4
	.cfi_restore 14
	.cfi_def_cfa_offset 0
	bx	lr
.L85:
	.align	2
.L84:
	.word	a
	.cfi_endproc
.LFE39:
	.size	nxt_lcd_force_update, .-nxt_lcd_force_update
	.align	2
	.global	nxt_lcd_update
	.type	nxt_lcd_update, %function
nxt_lcd_update:
.LFB40:
	.loc 2 451 0
	.cfi_startproc
	@ Function supports interworking.
	@ args = 0, pretend = 0, frame = 0
	@ frame_needed = 0, uses_anonymous_args = 0
	stmfd	sp!, {r4, lr}
	.cfi_def_cfa_offset 8
	.cfi_offset 4, -8
	.cfi_offset 14, -4
	.loc 2 454 0
	bl	nxt_spi_refresh
	.loc 2 458 0
	mov	r0, r0	@ nop
	ldmfd	sp!, {r4, lr}
	.cfi_restore 14
	.cfi_restore 4
	.cfi_def_cfa_offset 0
	bx	lr
	.cfi_endproc
.LFE40:
	.size	nxt_lcd_update, .-nxt_lcd_update
	.align	2
	.global	display_int
	.type	display_int, %function
display_int:
.LFB41:
	.loc 2 463 0
	.cfi_startproc
	@ Function supports interworking.
	@ args = 0, pretend = 0, frame = 8
	@ frame_needed = 0, uses_anonymous_args = 0
	str	lr, [sp, #-4]!
	.cfi_def_cfa_offset 4
	.cfi_offset 14, -4
	sub	sp, sp, #12
	.cfi_def_cfa_offset 16
	str	r0, [sp, #4]
	str	r1, [sp]
	.loc 2 464 0
	ldr	r3, [sp, #4]
	eor	r0, r3, r3, asr #31
	sub	r0, r0, r3, asr #31
	ldr	r3, [sp, #4]
	mov	r3, r3, lsr #31
	and	r3, r3, #255
	mov	r2, r3
	ldr	r1, [sp]
	bl	display_unsigned_worker
	.loc 2 465 0
	mov	r0, r0	@ nop
	add	sp, sp, #12
	.cfi_def_cfa_offset 4
	@ sp needed
	ldr	lr, [sp], #4
	.cfi_restore 14
	.cfi_def_cfa_offset 0
	bx	lr
	.cfi_endproc
.LFE41:
	.size	display_int, .-display_int
	.global	display_tick
	.bss
	.align	2
	.type	display_tick, %object
	.size	display_tick, 4
display_tick:
	.space	4
	.global	display_auto_update
	.data
	.align	2
	.type	display_auto_update, %object
	.size	display_auto_update, 4
display_auto_update:
	.word	1
	.text
	.align	2
	.global	display_update
	.type	display_update, %function
display_update:
.LFB42:
	.loc 2 472 0
	.cfi_startproc
	@ Function supports interworking.
	@ args = 0, pretend = 0, frame = 0
	@ frame_needed = 0, uses_anonymous_args = 0
	stmfd	sp!, {r4, lr}
	.cfi_def_cfa_offset 8
	.cfi_offset 4, -8
	.cfi_offset 14, -4
	.loc 2 473 0
	ldr	r3, .L89
	mov	r2, #0
	str	r2, [r3]
	.loc 2 474 0
	bl	nxt_lcd_update
	.loc 2 475 0
	mov	r0, r0	@ nop
	ldmfd	sp!, {r4, lr}
	.cfi_restore 14
	.cfi_restore 4
	.cfi_def_cfa_offset 0
	bx	lr
.L90:
	.align	2
.L89:
	.word	display_tick
	.cfi_endproc
.LFE42:
	.size	display_update, .-display_update
	.align	2
	.global	show_var
	.type	show_var, %function
show_var:
.LFB43:
	.loc 2 479 0
	.cfi_startproc
	@ Function supports interworking.
	@ args = 0, pretend = 0, frame = 24
	@ frame_needed = 0, uses_anonymous_args = 0
	str	lr, [sp, #-4]!
	.cfi_def_cfa_offset 4
	.cfi_offset 14, -4
	sub	sp, sp, #28
	.cfi_def_cfa_offset 32
	str	r0, [sp, #12]
	str	r1, [sp, #8]
	str	r2, [sp, #4]
	.loc 2 482 0
	ldr	r1, [sp, #8]
	mov	r0, #0
	bl	display_goto_xy
	.loc 2 483 0
	ldr	r0, [sp, #12]
	bl	display_string
	.loc 2 484 0
	ldr	r0, [sp, #12]
	bl	strlen
	str	r0, [sp, #20]
	.loc 2 485 0
	ldr	r1, [sp, #8]
	ldr	r0, [sp, #20]
	bl	display_goto_xy
	.loc 2 486 0
	mov	r1, #4
	ldr	r0, [sp, #4]
	bl	display_int
	.loc 2 487 0
	ldr	r3, [sp, #8]
	add	r3, r3, #1
	mov	r1, r3
	mov	r0, #0
	bl	display_goto_xy
	.loc 2 488 0
	bl	display_update
	.loc 2 490 0
	mov	r0, r0	@ nop
	add	sp, sp, #28
	.cfi_def_cfa_offset 4
	@ sp needed
	ldr	lr, [sp], #4
	.cfi_restore 14
	.cfi_def_cfa_offset 0
	bx	lr
	.cfi_endproc
.LFE43:
	.size	show_var, .-show_var
	.align	2
	.global	ecrobot_set_motor_speed
	.type	ecrobot_set_motor_speed, %function
ecrobot_set_motor_speed:
.LFB44:
	.loc 2 492 0
	.cfi_startproc
	@ Function supports interworking.
	@ args = 0, pretend = 0, frame = 8
	@ frame_needed = 0, uses_anonymous_args = 0
	@ link register save eliminated.
	sub	sp, sp, #8
	.cfi_def_cfa_offset 8
	str	r0, [sp, #4]
	str	r1, [sp]
	.loc 2 493 0
	ldr	r3, [sp]
	cmp	r3, #100
	ble	.L93
	.loc 2 494 0
	mov	r3, #100
	str	r3, [sp]
.L93:
	.loc 2 495 0
	ldr	r3, [sp]
	cmn	r3, #100
	bge	.L95
	.loc 2 496 0
	mvn	r3, #99
	str	r3, [sp]
.L95:
	.loc 2 497 0
	mov	r0, r0	@ nop
	add	sp, sp, #8
	.cfi_def_cfa_offset 0
	@ sp needed
	bx	lr
	.cfi_endproc
.LFE44:
	.size	ecrobot_set_motor_speed, .-ecrobot_set_motor_speed
	.global	__aeabi_dcmpgt
	.global	__aeabi_dcmplt
	.global	__aeabi_d2iz
	.align	2
	.global	output_motor
	.type	output_motor, %function
output_motor:
.LFB45:
	.loc 2 499 0
	.cfi_startproc
	@ Function supports interworking.
	@ args = 0, pretend = 0, frame = 24
	@ frame_needed = 0, uses_anonymous_args = 0
	stmfd	sp!, {r4, lr}
	.cfi_def_cfa_offset 8
	.cfi_offset 4, -8
	.cfi_offset 14, -4
	sub	sp, sp, #24
	.cfi_def_cfa_offset 32
	str	r0, [sp, #12]
	stmia	sp, {r2-r3}
	.loc 2 502 0
	mov	r2, #0
	ldr	r3, .L106
	ldmia	sp, {r0-r1}
	bl	__aeabi_dcmpgt
	mov	r3, r0
	cmp	r3, #0
	beq	.L104
	.loc 2 503 0
	mov	r3, #0
	ldr	r4, .L106
	str	r3, [sp, #16]
	str	r4, [sp, #20]
	b	.L99
.L104:
	.loc 2 504 0
	mov	r2, #0
	ldr	r3, .L106+4
	ldmia	sp, {r0-r1}
	bl	__aeabi_dcmplt
	mov	r3, r0
	cmp	r3, #0
	beq	.L105
	.loc 2 505 0
	mov	r3, #0
	ldr	r4, .L106+4
	str	r3, [sp, #16]
	str	r4, [sp, #20]
	b	.L99
.L105:
	.loc 2 507 0
	ldmia	sp, {r3-r4}
	str	r3, [sp, #16]
	str	r4, [sp, #20]
.L99:
	.loc 2 510 0
	add	r1, sp, #16
	ldmia	r1, {r0-r1}
	bl	__aeabi_d2iz
	mov	r3, r0
	mov	r1, r3
	ldr	r0, [sp, #12]
	bl	ecrobot_set_motor_speed
	.loc 2 511 0
	mov	r0, r0	@ nop
	add	sp, sp, #24
	.cfi_def_cfa_offset 8
	@ sp needed
	ldmfd	sp!, {r4, lr}
	.cfi_restore 14
	.cfi_restore 4
	.cfi_def_cfa_offset 0
	bx	lr
.L107:
	.align	2
.L106:
	.word	1079574528
	.word	-1067909120
	.cfi_endproc
.LFE45:
	.size	output_motor, .-output_motor
	.global	__aeabi_dmul
	.section	.rodata
	.align	2
.LC0:
	.ascii	"ud\000"
	.global	__aeabi_dadd
	.global	__aeabi_ddiv
	.align	2
.LC1:
	.ascii	"Pd\000"
	.text
	.align	2
	.global	motor_control_O_u_d
	.type	motor_control_O_u_d, %function
motor_control_O_u_d:
.LFB46:
	.loc 2 513 0
	.cfi_startproc
	@ Function supports interworking.
	@ args = 0, pretend = 0, frame = 16
	@ frame_needed = 0, uses_anonymous_args = 0
	stmfd	sp!, {r4, lr}
	.cfi_def_cfa_offset 8
	.cfi_offset 4, -8
	.cfi_offset 14, -4
	sub	sp, sp, #16
	.cfi_def_cfa_offset 24
	stmia	sp, {r0-r1}
	.loc 2 514 0
	mov	r2, #0
	ldr	r3, .L111+8
	ldmia	sp, {r0-r1}
	bl	__aeabi_dmul
	mov	r3, r0
	mov	r4, r1
	mov	r0, r3
	mov	r1, r4
	bl	__aeabi_d2iz
	mov	r3, r0
	mov	r2, r3
	mov	r1, #5
	ldr	r0, .L111+12
	bl	show_var
	.loc 2 516 0
	adr	r3, .L111
	ldmia	r3, {r2-r3}
	ldmia	sp, {r0-r1}
	bl	__aeabi_dadd
	mov	r3, r0
	mov	r4, r1
	stmia	sp, {r3-r4}
	.loc 2 517 0
	mov	r2, #0
	ldr	r3, .L111+16
	ldmia	sp, {r0-r1}
	bl	__aeabi_ddiv
	mov	r3, r0
	mov	r4, r1
	mov	r0, r3
	mov	r1, r4
	mov	r2, #0
	ldr	r3, .L111+8
	bl	__aeabi_dmul
	mov	r3, r0
	mov	r4, r1
	mov	r0, r3
	mov	r1, r4
	mov	r2, #0
	ldr	r3, .L111+20
	bl	__aeabi_dadd
	mov	r3, r0
	mov	r4, r1
	str	r3, [sp, #8]
	str	r4, [sp, #12]
	.loc 2 519 0
	add	r1, sp, #8
	ldmia	r1, {r0-r1}
	bl	__aeabi_d2iz
	mov	r3, r0
	mov	r2, r3
	mov	r1, #3
	ldr	r0, .L111+24
	bl	show_var
	.loc 2 521 0
	ldr	r3, .L111+28
	ldr	r3, [r3]
	cmp	r3, #0
	bne	.L110
	.loc 2 521 0 is_stmt 0 discriminator 1
	ldr	r3, .L111+32
	ldr	r1, [r3]
	add	r3, sp, #8
	ldmia	r3, {r2-r3}
	mov	r0, r1
	bl	output_motor
.L110:
	.loc 2 522 0 is_stmt 1
	mov	r0, r0	@ nop
	add	sp, sp, #16
	.cfi_def_cfa_offset 8
	@ sp needed
	ldmfd	sp!, {r4, lr}
	.cfi_restore 14
	.cfi_restore 4
	.cfi_def_cfa_offset 0
	bx	lr
.L112:
	.align	3
.L111:
	.word	858993459
	.word	1072902963
	.word	1079574528
	.word	.LC0
	.word	1074528256
	.word	1076101120
	.word	.LC1
	.word	multi_task_obst
	.word	RIGHT_WHEEL_PORT
	.cfi_endproc
.LFE46:
	.size	motor_control_O_u_d, .-motor_control_O_u_d
	.section	.rodata
	.align	2
.LC2:
	.ascii	"ug\000"
	.align	2
.LC3:
	.ascii	"Pg\000"
	.text
	.align	2
	.global	motor_control_O_u_g
	.type	motor_control_O_u_g, %function
motor_control_O_u_g:
.LFB47:
	.loc 2 525 0
	.cfi_startproc
	@ Function supports interworking.
	@ args = 0, pretend = 0, frame = 16
	@ frame_needed = 0, uses_anonymous_args = 0
	stmfd	sp!, {r4, lr}
	.cfi_def_cfa_offset 8
	.cfi_offset 4, -8
	.cfi_offset 14, -4
	sub	sp, sp, #16
	.cfi_def_cfa_offset 24
	stmia	sp, {r0-r1}
	.loc 2 526 0
	mov	r2, #0
	ldr	r3, .L116+8
	ldmia	sp, {r0-r1}
	bl	__aeabi_dmul
	mov	r3, r0
	mov	r4, r1
	mov	r0, r3
	mov	r1, r4
	bl	__aeabi_d2iz
	mov	r3, r0
	mov	r2, r3
	mov	r1, #6
	ldr	r0, .L116+12
	bl	show_var
	.loc 2 528 0
	adr	r3, .L116
	ldmia	r3, {r2-r3}
	ldmia	sp, {r0-r1}
	bl	__aeabi_dadd
	mov	r3, r0
	mov	r4, r1
	stmia	sp, {r3-r4}
	.loc 2 529 0
	mov	r2, #0
	ldr	r3, .L116+16
	ldmia	sp, {r0-r1}
	bl	__aeabi_ddiv
	mov	r3, r0
	mov	r4, r1
	mov	r0, r3
	mov	r1, r4
	mov	r2, #0
	ldr	r3, .L116+8
	bl	__aeabi_dmul
	mov	r3, r0
	mov	r4, r1
	mov	r0, r3
	mov	r1, r4
	mov	r2, #0
	ldr	r3, .L116+20
	bl	__aeabi_dadd
	mov	r3, r0
	mov	r4, r1
	str	r3, [sp, #8]
	str	r4, [sp, #12]
	.loc 2 531 0
	add	r1, sp, #8
	ldmia	r1, {r0-r1}
	bl	__aeabi_d2iz
	mov	r3, r0
	mov	r2, r3
	mov	r1, #4
	ldr	r0, .L116+24
	bl	show_var
	.loc 2 533 0
	ldr	r3, .L116+28
	ldr	r3, [r3]
	cmp	r3, #0
	bne	.L115
	.loc 2 533 0 is_stmt 0 discriminator 1
	ldr	r3, .L116+32
	ldr	r1, [r3]
	add	r3, sp, #8
	ldmia	r3, {r2-r3}
	mov	r0, r1
	bl	output_motor
.L115:
	.loc 2 534 0 is_stmt 1
	mov	r0, r0	@ nop
	add	sp, sp, #16
	.cfi_def_cfa_offset 8
	@ sp needed
	ldmfd	sp!, {r4, lr}
	.cfi_restore 14
	.cfi_restore 4
	.cfi_def_cfa_offset 0
	bx	lr
.L117:
	.align	3
.L116:
	.word	858993459
	.word	1072902963
	.word	1079574528
	.word	.LC2
	.word	1074528256
	.word	1076101120
	.word	.LC3
	.word	multi_task_obst
	.word	LEFT_WHEEL_PORT
	.cfi_endproc
.LFE47:
	.size	motor_control_O_u_g, .-motor_control_O_u_g
	.comm	pi,8,8
	.comm	kp_teta,8,8
	.comm	ki_teta,8,8
	.bss
	.align	3
ctx:
	.space	48
	.text
	.align	2
	.global	motor_control_I_Cg
	.type	motor_control_I_Cg, %function
motor_control_I_Cg:
.LFB48:
	.loc 2 556 0
	.cfi_startproc
	@ Function supports interworking.
	@ args = 0, pretend = 0, frame = 8
	@ frame_needed = 0, uses_anonymous_args = 0
	@ link register save eliminated.
	str	r4, [sp, #-4]!
	.cfi_def_cfa_offset 4
	.cfi_offset 4, -4
	sub	sp, sp, #12
	.cfi_def_cfa_offset 16
	stmia	sp, {r0-r1}
	.loc 2 557 0
	ldr	r2, .L119
	ldmia	sp, {r3-r4}
	stmia	r2, {r3-r4}
	.loc 2 558 0
	mov	r0, r0	@ nop
	add	sp, sp, #12
	.cfi_def_cfa_offset 4
	@ sp needed
	ldr	r4, [sp], #4
	.cfi_restore 4
	.cfi_def_cfa_offset 0
	bx	lr
.L120:
	.align	2
.L119:
	.word	ctx
	.cfi_endproc
.LFE48:
	.size	motor_control_I_Cg, .-motor_control_I_Cg
	.align	2
	.global	motor_control_I_Cd
	.type	motor_control_I_Cd, %function
motor_control_I_Cd:
.LFB49:
	.loc 2 559 0
	.cfi_startproc
	@ Function supports interworking.
	@ args = 0, pretend = 0, frame = 8
	@ frame_needed = 0, uses_anonymous_args = 0
	@ link register save eliminated.
	str	r4, [sp, #-4]!
	.cfi_def_cfa_offset 4
	.cfi_offset 4, -4
	sub	sp, sp, #12
	.cfi_def_cfa_offset 16
	stmia	sp, {r0-r1}
	.loc 2 560 0
	ldr	r2, .L122
	ldmia	sp, {r3-r4}
	str	r3, [r2, #8]
	str	r4, [r2, #12]
	.loc 2 561 0
	mov	r0, r0	@ nop
	add	sp, sp, #12
	.cfi_def_cfa_offset 4
	@ sp needed
	ldr	r4, [sp], #4
	.cfi_restore 4
	.cfi_def_cfa_offset 0
	bx	lr
.L123:
	.align	2
.L122:
	.word	ctx
	.cfi_endproc
.LFE49:
	.size	motor_control_I_Cd, .-motor_control_I_Cd
	.align	2
	.type	motor_control_reset_input, %function
motor_control_reset_input:
.LFB50:
	.loc 2 562 0
	.cfi_startproc
	@ Function supports interworking.
	@ args = 0, pretend = 0, frame = 0
	@ frame_needed = 0, uses_anonymous_args = 0
	@ link register save eliminated.
	.loc 2 564 0
	mov	r0, r0	@ nop
	bx	lr
	.cfi_endproc
.LFE50:
	.size	motor_control_reset_input, .-motor_control_reset_input
	.align	2
	.global	motor_control_reset
	.type	motor_control_reset, %function
motor_control_reset:
.LFB51:
	.loc 2 565 0
	.cfi_startproc
	@ Function supports interworking.
	@ args = 0, pretend = 0, frame = 0
	@ frame_needed = 0, uses_anonymous_args = 0
	stmfd	sp!, {r4, lr}
	.cfi_def_cfa_offset 8
	.cfi_offset 4, -8
	.cfi_offset 14, -4
	.loc 2 566 0
	ldr	r3, .L126
	mov	r2, #1
	str	r2, [r3, #40]
	.loc 2 567 0
	ldr	r3, .L126
	mov	r2, #1
	str	r2, [r3, #44]
	.loc 2 568 0
	bl	motor_control_reset_input
	.loc 2 569 0
	mov	r0, r0	@ nop
	ldmfd	sp!, {r4, lr}
	.cfi_restore 14
	.cfi_restore 4
	.cfi_def_cfa_offset 0
	bx	lr
.L127:
	.align	2
.L126:
	.word	ctx
	.cfi_endproc
.LFE51:
	.size	motor_control_reset, .-motor_control_reset
	.global	__aeabi_dsub
	.align	2
	.global	motor_control_step
	.type	motor_control_step, %function
motor_control_step:
.LFB52:
	.loc 2 570 0
	.cfi_startproc
	@ Function supports interworking.
	@ args = 0, pretend = 0, frame = 200
	@ frame_needed = 0, uses_anonymous_args = 0
	stmfd	sp!, {r4, lr}
	.cfi_def_cfa_offset 8
	.cfi_offset 4, -8
	.cfi_offset 14, -4
	sub	sp, sp, #200
	.cfi_def_cfa_offset 208
	.loc 2 598 0
	mov	r3, #0
	ldr	r4, .L134+16
	str	r3, [sp, #176]
	str	r4, [sp, #180]
	.loc 2 599 0
	ldr	r3, .L134+20
	ldmia	r3, {r0-r1}
	mov	r2, #0
	ldr	r3, .L134+24
	bl	__aeabi_ddiv
	mov	r3, r0
	mov	r4, r1
	str	r3, [sp, #168]
	str	r4, [sp, #172]
	.loc 2 600 0
	ldr	r3, .L134+28
	add	r1, r3, #8
	ldmia	r1, {r0-r1}
	ldr	r3, .L134+28
	ldmia	r3, {r3-r4}
	mov	r2, r3
	mov	r3, r4
	bl	__aeabi_dsub
	mov	r3, r0
	mov	r4, r1
	str	r3, [sp, #160]
	str	r4, [sp, #164]
	.loc 2 601 0
	add	r3, sp, #160
	ldmia	r3, {r2-r3}
	add	r1, sp, #168
	ldmia	r1, {r0-r1}
	bl	__aeabi_dmul
	mov	r3, r0
	mov	r4, r1
	str	r3, [sp, #152]
	str	r4, [sp, #156]
	.loc 2 602 0
	adr	r3, .L134
	ldmia	r3, {r2-r3}
	add	r1, sp, #152
	ldmia	r1, {r0-r1}
	bl	__aeabi_dmul
	mov	r3, r0
	mov	r4, r1
	str	r3, [sp, #144]
	str	r4, [sp, #148]
	.loc 2 603 0
	ldr	r3, .L134+28
	ldr	r3, [r3, #44]
	cmp	r3, #0
	beq	.L129
	.loc 2 604 0
	mov	r3, #0
	mov	r4, #0
	str	r3, [sp, #192]
	str	r4, [sp, #196]
	b	.L130
.L129:
	.loc 2 606 0
	ldr	r3, .L134+28
	add	r4, r3, #32
	ldmia	r4, {r3-r4}
	str	r3, [sp, #192]
	str	r4, [sp, #196]
.L130:
	.loc 2 608 0
	add	r3, sp, #192
	ldmia	r3, {r2-r3}
	add	r1, sp, #144
	ldmia	r1, {r0-r1}
	bl	__aeabi_dadd
	mov	r3, r0
	mov	r4, r1
	str	r3, [sp, #136]
	str	r4, [sp, #140]
	.loc 2 609 0
	ldr	r3, .L134+32
	ldmia	r3, {r0-r1}
	add	r3, sp, #136
	ldmia	r3, {r2-r3}
	bl	__aeabi_dmul
	mov	r3, r0
	mov	r4, r1
	str	r3, [sp, #128]
	str	r4, [sp, #132]
	.loc 2 610 0
	ldr	r3, .L134+36
	ldmia	r3, {r0-r1}
	add	r3, sp, #152
	ldmia	r3, {r2-r3}
	bl	__aeabi_dmul
	mov	r3, r0
	mov	r4, r1
	str	r3, [sp, #120]
	str	r4, [sp, #124]
	.loc 2 611 0
	add	r3, sp, #120
	ldmia	r3, {r2-r3}
	add	r1, sp, #128
	ldmia	r1, {r0-r1}
	bl	__aeabi_dadd
	mov	r3, r0
	mov	r4, r1
	str	r3, [sp, #112]
	str	r4, [sp, #116]
	.loc 2 612 0
	add	r1, sp, #112
	ldmia	r1, {r0-r1}
	mov	r2, r0
	mov	r3, r1
	bl	__aeabi_dadd
	mov	r3, r0
	mov	r4, r1
	str	r3, [sp, #104]
	str	r4, [sp, #108]
	.loc 2 613 0
	mov	r3, #1
	mov	r4, r3
	mov	r2, #0
	mov	r3, #0
	add	r1, sp, #104
	ldmia	r1, {r0-r1}
	bl	__aeabi_dcmplt
	mov	r3, r0
	cmp	r3, #0
	bne	.L131
	mov	r3, #0
	mov	r4, r3
.L131:
	and	r3, r4, #255
	str	r3, [sp, #100]
	.loc 2 614 0
	ldr	r3, [sp, #104]
	str	r3, [sp, #88]
	ldr	r3, [sp, #108]
	eor	r3, r3, #-2147483648
	str	r3, [sp, #92]
	.loc 2 615 0
	ldr	r3, [sp, #100]
	cmp	r3, #0
	beq	.L132
	.loc 2 616 0
	add	r4, sp, #88
	ldmia	r4, {r3-r4}
	str	r3, [sp, #184]
	str	r4, [sp, #188]
	b	.L133
.L132:
	.loc 2 618 0
	add	r4, sp, #104
	ldmia	r4, {r3-r4}
	str	r3, [sp, #184]
	str	r4, [sp, #188]
.L133:
	.loc 2 620 0
	ldr	r3, [sp, #184]
	str	r3, [sp, #80]
	ldr	r3, [sp, #188]
	eor	r3, r3, #-2147483648
	str	r3, [sp, #84]
	.loc 2 621 0
	ldr	r3, .L134+28
	add	r1, r3, #8
	ldmia	r1, {r0-r1}
	ldr	r3, .L134+28
	ldmia	r3, {r3-r4}
	mov	r2, r3
	mov	r3, r4
	bl	__aeabi_dadd
	mov	r3, r0
	mov	r4, r1
	str	r3, [sp, #72]
	str	r4, [sp, #76]
	.loc 2 622 0
	adr	r3, .L134+8
	ldmia	r3, {r2-r3}
	add	r1, sp, #72
	ldmia	r1, {r0-r1}
	bl	__aeabi_dmul
	mov	r3, r0
	mov	r4, r1
	str	r3, [sp, #64]
	str	r4, [sp, #68]
	.loc 2 623 0
	add	r3, sp, #64
	ldmia	r3, {r2-r3}
	add	r1, sp, #80
	ldmia	r1, {r0-r1}
	bl	__aeabi_dadd
	mov	r3, r0
	mov	r4, r1
	str	r3, [sp, #56]
	str	r4, [sp, #60]
	.loc 2 624 0
	add	r1, sp, #56
	ldmia	r1, {r0-r1}
	mov	r2, r0
	mov	r3, r1
	bl	__aeabi_dadd
	mov	r3, r0
	mov	r4, r1
	str	r3, [sp, #48]
	str	r4, [sp, #52]
	.loc 2 625 0
	add	r3, sp, #48
	ldmia	r3, {r2-r3}
	add	r1, sp, #112
	ldmia	r1, {r0-r1}
	bl	__aeabi_dadd
	mov	r3, r0
	mov	r4, r1
	str	r3, [sp, #40]
	str	r4, [sp, #44]
	.loc 2 626 0
	add	r3, sp, #40
	ldmia	r3, {r2-r3}
	add	r1, sp, #176
	ldmia	r1, {r0-r1}
	bl	__aeabi_dmul
	mov	r3, r0
	mov	r4, r1
	str	r3, [sp, #32]
	str	r4, [sp, #36]
	.loc 2 627 0
	add	r1, sp, #32
	ldmia	r1, {r0-r1}
	bl	motor_control_O_u_d
	.loc 2 628 0
	ldr	r3, [sp, #112]
	str	r3, [sp, #24]
	ldr	r3, [sp, #116]
	eor	r3, r3, #-2147483648
	str	r3, [sp, #28]
	.loc 2 629 0
	add	r3, sp, #48
	ldmia	r3, {r2-r3}
	add	r1, sp, #24
	ldmia	r1, {r0-r1}
	bl	__aeabi_dadd
	mov	r3, r0
	mov	r4, r1
	str	r3, [sp, #16]
	str	r4, [sp, #20]
	.loc 2 630 0
	add	r3, sp, #16
	ldmia	r3, {r2-r3}
	add	r1, sp, #176
	ldmia	r1, {r0-r1}
	bl	__aeabi_dmul
	mov	r3, r0
	mov	r4, r1
	str	r3, [sp, #8]
	str	r4, [sp, #12]
	.loc 2 631 0
	add	r1, sp, #8
	ldmia	r1, {r0-r1}
	bl	motor_control_O_u_g
	.loc 2 632 0
	add	r4, sp, #136
	ldmia	r4, {r3-r4}
	stmia	sp, {r3-r4}
	.loc 2 633 0
	ldr	r2, .L134+28
	ldmia	sp, {r3-r4}
	str	r3, [r2, #32]
	str	r4, [r2, #36]
	.loc 2 634 0
	ldr	r3, .L134+28
	mov	r2, #0
	str	r2, [r3, #40]
	.loc 2 635 0
	ldr	r3, .L134+28
	mov	r2, #0
	str	r2, [r3, #44]
	.loc 2 636 0
	mov	r0, r0	@ nop
	add	sp, sp, #200
	.cfi_def_cfa_offset 8
	@ sp needed
	ldmfd	sp!, {r4, lr}
	.cfi_restore 14
	.cfi_restore 4
	.cfi_def_cfa_offset 0
	bx	lr
.L135:
	.align	3
.L134:
	.word	-755914244
	.word	1063281229
	.word	1202590843
	.word	1064598241
	.word	1071644672
	.word	pi
	.word	1080623104
	.word	ctx
	.word	ki_teta
	.word	kp_teta
	.cfi_endproc
.LFE52:
	.size	motor_control_step, .-motor_control_step
	.global	__aeabi_idiv
	.section	.rodata
	.align	2
.LC4:
	.ascii	"raw_right\000"
	.align	2
.LC5:
	.ascii	"raw_left\000"
	.global	__aeabi_i2d
	.text
	.align	2
	.global	highTask
	.type	highTask, %function
highTask:
.LFB53:
	.loc 2 640 0
	.cfi_startproc
	@ Function supports interworking.
	@ args = 0, pretend = 0, frame = 8
	@ frame_needed = 0, uses_anonymous_args = 0
	stmfd	sp!, {r4, lr}
	.cfi_def_cfa_offset 8
	.cfi_offset 4, -8
	.cfi_offset 14, -4
	sub	sp, sp, #8
	.cfi_def_cfa_offset 16
	.loc 2 643 0
	ldr	r3, .L141
	ldr	r3, [r3]
	mov	r0, r3
	bl	ecrobot_get_light_sensor
	str	r0, [sp, #4]
	.loc 2 644 0
	ldr	r3, .L141+4
	ldr	r3, [r3]
	mov	r0, r3
	bl	ecrobot_get_light_sensor
	str	r0, [sp]
	.loc 2 645 0
	ldr	r3, .L141+8
	ldr	r3, [r3]
	ldr	r2, [sp, #4]
	cmp	r2, r3
	bge	.L137
	.loc 2 646 0
	ldr	r3, .L141+8
	ldr	r3, [r3]
	str	r3, [sp, #4]
	b	.L138
.L137:
	.loc 2 647 0
	ldr	r3, .L141+12
	ldr	r3, [r3]
	ldr	r2, [sp, #4]
	cmp	r2, r3
	ble	.L138
	.loc 2 648 0
	ldr	r3, .L141+12
	ldr	r3, [r3]
	str	r3, [sp, #4]
.L138:
	.loc 2 651 0
	ldr	r3, .L141+16
	ldr	r3, [r3]
	ldr	r2, [sp]
	cmp	r2, r3
	bge	.L139
	.loc 2 652 0
	ldr	r3, .L141+16
	ldr	r3, [r3]
	str	r3, [sp]
	b	.L140
.L139:
	.loc 2 653 0
	ldr	r3, .L141+20
	ldr	r3, [r3]
	ldr	r2, [sp]
	cmp	r2, r3
	ble	.L140
	.loc 2 654 0
	ldr	r3, .L141+20
	ldr	r3, [r3]
	str	r3, [sp]
.L140:
	.loc 2 657 0
	ldr	r3, .L141+8
	ldr	r3, [r3]
	ldr	r2, [sp, #4]
	rsb	r2, r3, r2
	mov	r3, r2
	mov	r3, r3, asl #2
	add	r3, r3, r2
	mov	r2, r3, asl #2
	add	r3, r3, r2
	mov	r3, r3, asl #2
	mov	r0, r3
	.loc 2 658 0
	ldr	r3, .L141+12
	ldr	r2, [r3]
	ldr	r3, .L141+8
	ldr	r3, [r3]
	rsb	r3, r3, r2
	.loc 2 657 0
	mov	r1, r3
	bl	__aeabi_idiv
	mov	r3, r0
	str	r3, [sp, #4]
	.loc 2 660 0
	ldr	r3, .L141+16
	ldr	r3, [r3]
	ldr	r2, [sp]
	rsb	r2, r3, r2
	mov	r3, r2
	mov	r3, r3, asl #2
	add	r3, r3, r2
	mov	r2, r3, asl #2
	add	r3, r3, r2
	mov	r3, r3, asl #2
	mov	r0, r3
	.loc 2 661 0
	ldr	r3, .L141+20
	ldr	r2, [r3]
	ldr	r3, .L141+16
	ldr	r3, [r3]
	rsb	r3, r3, r2
	.loc 2 660 0
	mov	r1, r3
	bl	__aeabi_idiv
	mov	r3, r0
	str	r3, [sp]
	.loc 2 663 0
	ldr	r3, [sp, #4]
	rsb	r3, r3, #100
	str	r3, [sp, #4]
	.loc 2 664 0
	ldr	r3, [sp]
	rsb	r3, r3, #100
	str	r3, [sp]
	.loc 2 665 0
	ldr	r2, [sp, #4]
	mov	r1, #0
	ldr	r0, .L141+24
	bl	show_var
	.loc 2 666 0
	ldr	r2, [sp]
	mov	r1, #1
	ldr	r0, .L141+28
	bl	show_var
	.loc 2 667 0
	ldr	r0, [sp, #4]
	bl	__aeabi_i2d
	mov	r3, r0
	mov	r4, r1
	mov	r0, r3
	mov	r1, r4
	bl	motor_control_I_Cd
	.loc 2 668 0
	ldr	r0, [sp]
	bl	__aeabi_i2d
	mov	r3, r0
	mov	r4, r1
	mov	r0, r3
	mov	r1, r4
	bl	motor_control_I_Cg
	.loc 2 669 0
	bl	motor_control_step
	.loc 2 672 0
	mov	r0, r0	@ nop
	add	sp, sp, #8
	.cfi_def_cfa_offset 8
	@ sp needed
	ldmfd	sp!, {r4, lr}
	.cfi_restore 14
	.cfi_restore 4
	.cfi_def_cfa_offset 0
	bx	lr
.L142:
	.align	2
.L141:
	.word	RIGHT_LIGHT_SENSOR
	.word	LEFT_LIGHT_SENSOR
	.word	sens_white_cal_right
	.word	sens_black_cal_right
	.word	sens_white_cal_left
	.word	sens_black_cal_left
	.word	.LC4
	.word	.LC5
	.cfi_endproc
.LFE53:
	.size	highTask, .-highTask
	.align	2
	.global	main
	.type	main, %function
main:
.LFB54:
	.loc 2 674 0
	.cfi_startproc
	@ Function supports interworking.
	@ args = 0, pretend = 0, frame = 0
	@ frame_needed = 0, uses_anonymous_args = 0
	stmfd	sp!, {r4, lr}
	.cfi_def_cfa_offset 8
	.cfi_offset 4, -8
	.cfi_offset 14, -4
	.loc 2 676 0
	bl	highTask
	.loc 2 677 0
	mov	r0, r0	@ nop
	ldmfd	sp!, {r4, lr}
	.cfi_restore 14
	.cfi_restore 4
	.cfi_def_cfa_offset 0
	bx	lr
	.cfi_endproc
.LFE54:
	.size	main, .-main
.Letext0: