	.cpu arm7tdmi
	.fpu softvfp
	.eabi_attribute 20, 1
	.eabi_attribute 21, 1
	.eabi_attribute 23, 3
	.eabi_attribute 24, 1
	.eabi_attribute 25, 1
	.eabi_attribute 26, 1
	.eabi_attribute 30, 6
	.eabi_attribute 34, 0
	.eabi_attribute 18, 4
	.arm
	.syntax divided
	.file	"nxtway_gs.c"
	.text
.Ltext0:
	.cfi_sections	.debug_frame
	.align	2
	.global	__aeabi_idiv
	.type	__aeabi_idiv, %function
__aeabi_idiv:
.LFB0:
	.file 1 "../ARMlib.h"
	.loc 1 29 0
	.cfi_startproc
	@ Function supports interworking.
	@ args = 0, pretend = 0, frame = 0
	@ frame_needed = 0, uses_anonymous_args = 0
	@ link register save eliminated.
	.loc 1 29 0
	mov	r0, r0	@ nop
	bx	lr
	.cfi_endproc
.LFE0:
	.size	__aeabi_idiv, .-__aeabi_idiv
	.align	2
	.global	__aeabi_i2d
	.type	__aeabi_i2d, %function
__aeabi_i2d:
.LFB1:
	.loc 1 30 0
	.cfi_startproc
	@ Function supports interworking.
	@ args = 0, pretend = 0, frame = 0
	@ frame_needed = 0, uses_anonymous_args = 0
	@ link register save eliminated.
	.loc 1 30 0
	mov	r0, r0	@ nop
	bx	lr
	.cfi_endproc
.LFE1:
	.size	__aeabi_i2d, .-__aeabi_i2d
	.align	2
	.global	__aeabi_uidivmod
	.type	__aeabi_uidivmod, %function
__aeabi_uidivmod:
.LFB2:
	.loc 1 31 0
	.cfi_startproc
	@ Function supports interworking.
	@ args = 0, pretend = 0, frame = 0
	@ frame_needed = 0, uses_anonymous_args = 0
	@ link register save eliminated.
	.loc 1 31 0
	mov	r0, r0	@ nop
	bx	lr
	.cfi_endproc
.LFE2:
	.size	__aeabi_uidivmod, .-__aeabi_uidivmod
	.align	2
	.global	__aeabi_fcmpge
	.type	__aeabi_fcmpge, %function
__aeabi_fcmpge:
.LFB3:
	.loc 1 32 0
	.cfi_startproc
	@ Function supports interworking.
	@ args = 0, pretend = 0, frame = 0
	@ frame_needed = 0, uses_anonymous_args = 0
	@ link register save eliminated.
	.loc 1 32 0
	mov	r0, r0	@ nop
	bx	lr
	.cfi_endproc
.LFE3:
	.size	__aeabi_fcmpge, .-__aeabi_fcmpge
	.align	2
	.global	__aeabi_i2f
	.type	__aeabi_i2f, %function
__aeabi_i2f:
.LFB4:
	.loc 1 33 0
	.cfi_startproc
	@ Function supports interworking.
	@ args = 0, pretend = 0, frame = 0
	@ frame_needed = 0, uses_anonymous_args = 0
	@ link register save eliminated.
	.loc 1 33 0
	mov	r0, r0	@ nop
	bx	lr
	.cfi_endproc
.LFE4:
	.size	__aeabi_i2f, .-__aeabi_i2f
	.align	2
	.global	__aeabi_ddiv
	.type	__aeabi_ddiv, %function
__aeabi_ddiv:
.LFB5:
	.loc 1 37 0
	.cfi_startproc
	@ Function supports interworking.
	@ args = 0, pretend = 0, frame = 0
	@ frame_needed = 0, uses_anonymous_args = 0
	@ link register save eliminated.
	.loc 1 37 0
	mov	r0, r0	@ nop
	bx	lr
	.cfi_endproc
.LFE5:
	.size	__aeabi_ddiv, .-__aeabi_ddiv
	.align	2
	.global	__aeabi_dsub
	.type	__aeabi_dsub, %function
__aeabi_dsub:
.LFB6:
	.loc 1 38 0
	.cfi_startproc
	@ Function supports interworking.
	@ args = 0, pretend = 0, frame = 0
	@ frame_needed = 0, uses_anonymous_args = 0
	@ link register save eliminated.
	.loc 1 38 0
	mov	r0, r0	@ nop
	bx	lr
	.cfi_endproc
.LFE6:
	.size	__aeabi_dsub, .-__aeabi_dsub
	.align	2
	.global	__aeabi_dmul
	.type	__aeabi_dmul, %function
__aeabi_dmul:
.LFB7:
	.loc 1 39 0
	.cfi_startproc
	@ Function supports interworking.
	@ args = 0, pretend = 0, frame = 0
	@ frame_needed = 0, uses_anonymous_args = 0
	@ link register save eliminated.
	.loc 1 39 0
	mov	r0, r0	@ nop
	bx	lr
	.cfi_endproc
.LFE7:
	.size	__aeabi_dmul, .-__aeabi_dmul
	.align	2
	.global	__aeabi_dcmpge
	.type	__aeabi_dcmpge, %function
__aeabi_dcmpge:
.LFB8:
	.loc 1 40 0
	.cfi_startproc
	@ Function supports interworking.
	@ args = 0, pretend = 0, frame = 0
	@ frame_needed = 0, uses_anonymous_args = 0
	@ link register save eliminated.
	.loc 1 40 0
	mov	r0, r0	@ nop
	bx	lr
	.cfi_endproc
.LFE8:
	.size	__aeabi_dcmpge, .-__aeabi_dcmpge
	.align	2
	.global	__aeabi_dcmpeq
	.type	__aeabi_dcmpeq, %function
__aeabi_dcmpeq:
.LFB9:
	.loc 1 41 0
	.cfi_startproc
	@ Function supports interworking.
	@ args = 0, pretend = 0, frame = 0
	@ frame_needed = 0, uses_anonymous_args = 0
	@ link register save eliminated.
	.loc 1 41 0
	mov	r0, r0	@ nop
	bx	lr
	.cfi_endproc
.LFE9:
	.size	__aeabi_dcmpeq, .-__aeabi_dcmpeq
	.align	2
	.global	__aeabi_dcmpgt
	.type	__aeabi_dcmpgt, %function
__aeabi_dcmpgt:
.LFB10:
	.loc 1 42 0
	.cfi_startproc
	@ Function supports interworking.
	@ args = 0, pretend = 0, frame = 0
	@ frame_needed = 0, uses_anonymous_args = 0
	@ link register save eliminated.
	.loc 1 42 0
	mov	r0, r0	@ nop
	bx	lr
	.cfi_endproc
.LFE10:
	.size	__aeabi_dcmpgt, .-__aeabi_dcmpgt
	.align	2
	.global	__aeabi_dcmple
	.type	__aeabi_dcmple, %function
__aeabi_dcmple:
.LFB11:
	.loc 1 43 0
	.cfi_startproc
	@ Function supports interworking.
	@ args = 0, pretend = 0, frame = 0
	@ frame_needed = 0, uses_anonymous_args = 0
	@ link register save eliminated.
	.loc 1 43 0
	mov	r0, r0	@ nop
	bx	lr
	.cfi_endproc
.LFE11:
	.size	__aeabi_dcmple, .-__aeabi_dcmple
	.align	2
	.global	__aeabi_d2f
	.type	__aeabi_d2f, %function
__aeabi_d2f:
.LFB12:
	.loc 1 44 0
	.cfi_startproc
	@ Function supports interworking.
	@ args = 0, pretend = 0, frame = 0
	@ frame_needed = 0, uses_anonymous_args = 0
	@ link register save eliminated.
	.loc 1 44 0
	mov	r0, r0	@ nop
	bx	lr
	.cfi_endproc
.LFE12:
	.size	__aeabi_d2f, .-__aeabi_d2f
	.align	2
	.global	__aeabi_dadd
	.type	__aeabi_dadd, %function
__aeabi_dadd:
.LFB13:
	.loc 1 45 0
	.cfi_startproc
	@ Function supports interworking.
	@ args = 0, pretend = 0, frame = 0
	@ frame_needed = 0, uses_anonymous_args = 0
	@ link register save eliminated.
	.loc 1 45 0
	mov	r0, r0	@ nop
	bx	lr
	.cfi_endproc
.LFE13:
	.size	__aeabi_dadd, .-__aeabi_dadd
	.align	2
	.global	__aeabi_d2iz
	.type	__aeabi_d2iz, %function
__aeabi_d2iz:
.LFB14:
	.loc 1 46 0
	.cfi_startproc
	@ Function supports interworking.
	@ args = 0, pretend = 0, frame = 0
	@ frame_needed = 0, uses_anonymous_args = 0
	@ link register save eliminated.
	.loc 1 46 0
	mov	r0, r0	@ nop
	bx	lr
	.cfi_endproc
.LFE14:
	.size	__aeabi_d2iz, .-__aeabi_d2iz
	.align	2
	.global	__aeabi_fcmplt
	.type	__aeabi_fcmplt, %function
__aeabi_fcmplt:
.LFB15:
	.loc 1 49 0
	.cfi_startproc
	@ Function supports interworking.
	@ args = 0, pretend = 0, frame = 0
	@ frame_needed = 0, uses_anonymous_args = 0
	@ link register save eliminated.
	.loc 1 49 0
	mov	r0, r0	@ nop
	bx	lr
	.cfi_endproc
.LFE15:
	.size	__aeabi_fcmplt, .-__aeabi_fcmplt
	.align	2
	.global	__aeabi_fcmpgt
	.type	__aeabi_fcmpgt, %function
__aeabi_fcmpgt:
.LFB16:
	.loc 1 50 0
	.cfi_startproc
	@ Function supports interworking.
	@ args = 0, pretend = 0, frame = 0
	@ frame_needed = 0, uses_anonymous_args = 0
	@ link register save eliminated.
	.loc 1 50 0
	mov	r0, r0	@ nop
	bx	lr
	.cfi_endproc
.LFE16:
	.size	__aeabi_fcmpgt, .-__aeabi_fcmpgt
	.align	2
	.global	__aeabi_fdiv
	.type	__aeabi_fdiv, %function
__aeabi_fdiv:
.LFB17:
	.loc 1 51 0
	.cfi_startproc
	@ Function supports interworking.
	@ args = 0, pretend = 0, frame = 0
	@ frame_needed = 0, uses_anonymous_args = 0
	@ link register save eliminated.
	.loc 1 51 0
	mov	r0, r0	@ nop
	bx	lr
	.cfi_endproc
.LFE17:
	.size	__aeabi_fdiv, .-__aeabi_fdiv
	.align	2
	.global	__aeabi_fcmpeq
	.type	__aeabi_fcmpeq, %function
__aeabi_fcmpeq:
.LFB18:
	.loc 1 52 0
	.cfi_startproc
	@ Function supports interworking.
	@ args = 0, pretend = 0, frame = 0
	@ frame_needed = 0, uses_anonymous_args = 0
	@ link register save eliminated.
	.loc 1 52 0
	mov	r0, r0	@ nop
	bx	lr
	.cfi_endproc
.LFE18:
	.size	__aeabi_fcmpeq, .-__aeabi_fcmpeq
	.align	2
	.global	__aeabi_fmul
	.type	__aeabi_fmul, %function
__aeabi_fmul:
.LFB19:
	.loc 1 53 0
	.cfi_startproc
	@ Function supports interworking.
	@ args = 0, pretend = 0, frame = 0
	@ frame_needed = 0, uses_anonymous_args = 0
	@ link register save eliminated.
	.loc 1 53 0
	mov	r0, r0	@ nop
	bx	lr
	.cfi_endproc
.LFE19:
	.size	__aeabi_fmul, .-__aeabi_fmul
	.align	2
	.global	__aeabi_fsub
	.type	__aeabi_fsub, %function
__aeabi_fsub:
.LFB20:
	.loc 1 54 0
	.cfi_startproc
	@ Function supports interworking.
	@ args = 0, pretend = 0, frame = 0
	@ frame_needed = 0, uses_anonymous_args = 0
	@ link register save eliminated.
	.loc 1 54 0
	mov	r0, r0	@ nop
	bx	lr
	.cfi_endproc
.LFE20:
	.size	__aeabi_fsub, .-__aeabi_fsub
	.align	2
	.global	__aeabi_f2d
	.type	__aeabi_f2d, %function
__aeabi_f2d:
.LFB21:
	.loc 1 55 0
	.cfi_startproc
	@ Function supports interworking.
	@ args = 0, pretend = 0, frame = 0
	@ frame_needed = 0, uses_anonymous_args = 0
	@ link register save eliminated.
	.loc 1 55 0
	mov	r0, r0	@ nop
	bx	lr
	.cfi_endproc
.LFE21:
	.size	__aeabi_f2d, .-__aeabi_f2d
	.align	2
	.global	__aeabi_fadd
	.type	__aeabi_fadd, %function
__aeabi_fadd:
.LFB22:
	.loc 1 56 0
	.cfi_startproc
	@ Function supports interworking.
	@ args = 0, pretend = 0, frame = 0
	@ frame_needed = 0, uses_anonymous_args = 0
	@ link register save eliminated.
	.loc 1 56 0
	mov	r0, r0	@ nop
	bx	lr
	.cfi_endproc
.LFE22:
	.size	__aeabi_fadd, .-__aeabi_fadd
	.align	2
	.global	__aeabi_ui2
	.type	__aeabi_ui2, %function
__aeabi_ui2:
.LFB23:
	.loc 1 59 0
	.cfi_startproc
	@ Function supports interworking.
	@ args = 0, pretend = 0, frame = 0
	@ frame_needed = 0, uses_anonymous_args = 0
	@ link register save eliminated.
	.loc 1 59 0
	mov	r0, r0	@ nop
	bx	lr
	.cfi_endproc
.LFE23:
	.size	__aeabi_ui2, .-__aeabi_ui2
	.align	2
	.global	__aeabi_ui2d
	.type	__aeabi_ui2d, %function
__aeabi_ui2d:
.LFB24:
	.loc 1 60 0
	.cfi_startproc
	@ Function supports interworking.
	@ args = 0, pretend = 0, frame = 0
	@ frame_needed = 0, uses_anonymous_args = 0
	@ link register save eliminated.
	.loc 1 60 0
	mov	r0, r0	@ nop
	bx	lr
	.cfi_endproc
.LFE24:
	.size	__aeabi_ui2d, .-__aeabi_ui2d
	.align	2
	.global	__aeabi_dcmpun
	.type	__aeabi_dcmpun, %function
__aeabi_dcmpun:
.LFB25:
	.loc 1 62 0
	.cfi_startproc
	@ Function supports interworking.
	@ args = 0, pretend = 0, frame = 0
	@ frame_needed = 0, uses_anonymous_args = 0
	@ link register save eliminated.
	.loc 1 62 0
	mov	r0, r0	@ nop
	bx	lr
	.cfi_endproc
.LFE25:
	.size	__aeabi_dcmpun, .-__aeabi_dcmpun
	.align	2
	.global	__aeabi_dcmplt
	.type	__aeabi_dcmplt, %function
__aeabi_dcmplt:
.LFB26:
	.loc 1 63 0
	.cfi_startproc
	@ Function supports interworking.
	@ args = 0, pretend = 0, frame = 0
	@ frame_needed = 0, uses_anonymous_args = 0
	@ link register save eliminated.
	.loc 1 63 0
	mov	r0, r0	@ nop
	bx	lr
	.cfi_endproc
.LFE26:
	.size	__aeabi_dcmplt, .-__aeabi_dcmplt
	.global	display_tick
	.bss
	.align	2
	.type	display_tick, %object
	.size	display_tick, 4
display_tick:
	.space	4
	.global	display_auto_update
	.data
	.align	2
	.type	display_auto_update, %object
	.size	display_auto_update, 4
display_auto_update:
	.word	1
	.global	avr_brainwash_string
	.section	.rodata
	.align	2
	.type	avr_brainwash_string, %object
	.size	avr_brainwash_string, 48
avr_brainwash_string:
	.byte	-52
	.byte	76
	.byte	101
	.byte	116
	.byte	39
	.byte	115
	.byte	32
	.byte	115
	.byte	97
	.byte	109
	.byte	98
	.byte	97
	.byte	32
	.byte	110
	.byte	120
	.byte	116
	.byte	32
	.byte	97
	.byte	114
	.byte	109
	.byte	32
	.byte	105
	.byte	110
	.byte	32
	.byte	97
	.byte	114
	.byte	109
	.byte	44
	.byte	32
	.byte	40
	.byte	99
	.byte	41
	.byte	76
	.byte	69
	.byte	71
	.byte	79
	.byte	32
	.byte	83
	.byte	121
	.byte	115
	.byte	116
	.byte	101
	.byte	109
	.byte	32
	.byte	65
	.byte	47
	.byte	83
	.byte	0
	.bss
	.align	2
io_to_avr:
	.space	8
	.align	2
data_to_avr:
	.space	9
	.align	2
data_from_avr:
	.space	26
	.align	2
io_from_avr:
	.space	4
	.align	2
from_buf:
	.space	4
	.align	1
prev_buttons:
	.space	2
	.align	1
button_state:
	.space	2
	.align	1
debounce_state:
	.space	2
	.align	1
debounce_cnt:
	.space	2
	.align	2
nxt_avr_stats:
	.space	20
	.align	2
update_count:
	.space	4
	.align	2
link_state:
	.space	4
	.global	displayM
	.align	2
	.type	displayM, %object
	.size	displayM, 4
displayM:
	.space	4
	.global	dirty
	.type	dirty, %object
	.size	dirty, 1
dirty:
	.space	1
	.global	page
	.type	page, %object
	.size	page, 1
page:
	.space	1
	.global	dataM
	.align	2
	.type	dataM, %object
	.size	dataM, 4
dataM:
	.space	4
	.global	mode
	.data
	.type	mode, %object
	.size	mode, 1
mode:
	.byte	-1
	.bss
	.align	2
display:
	.space	4
	.align	2
display_array:
	.space	904
	.data
	.align	2
	.type	display_buffer, %object
	.size	display_buffer, 4
display_buffer:
	.word	display_array+4
	.section	.rodata
	.align	2
	.type	font, %object
	.size	font, 640
font:
	.byte	62
	.byte	54
	.byte	42
	.byte	54
	.byte	62
	.byte	62
	.byte	85
	.byte	97
	.byte	85
	.byte	62
	.byte	62
	.byte	107
	.byte	95
	.byte	107
	.byte	62
	.byte	12
	.byte	30
	.byte	60
	.byte	30
	.byte	12
	.byte	8
	.byte	28
	.byte	62
	.byte	28
	.byte	8
	.byte	24
	.byte	94
	.byte	126
	.byte	94
	.byte	24
	.byte	24
	.byte	92
	.byte	126
	.byte	92
	.byte	24
	.byte	62
	.byte	54
	.byte	42
	.byte	54
	.byte	62
	.byte	62
	.byte	54
	.byte	42
	.byte	54
	.byte	62
	.byte	62
	.byte	54
	.byte	42
	.byte	54
	.byte	62
	.byte	62
	.byte	54
	.byte	42
	.byte	54
	.byte	62
	.byte	62
	.byte	54
	.byte	42
	.byte	54
	.byte	62
	.byte	62
	.byte	54
	.byte	42
	.byte	54
	.byte	62
	.byte	62
	.byte	54
	.byte	42
	.byte	54
	.byte	62
	.byte	62
	.byte	54
	.byte	42
	.byte	54
	.byte	62
	.byte	62
	.byte	54
	.byte	42
	.byte	54
	.byte	62
	.byte	62
	.byte	54
	.byte	42
	.byte	54
	.byte	62
	.byte	62
	.byte	54
	.byte	42
	.byte	54
	.byte	62
	.byte	62
	.byte	54
	.byte	42
	.byte	54
	.byte	62
	.byte	62
	.byte	54
	.byte	42
	.byte	54
	.byte	62
	.byte	62
	.byte	54
	.byte	42
	.byte	54
	.byte	62
	.byte	62
	.byte	54
	.byte	42
	.byte	54
	.byte	62
	.byte	62
	.byte	54
	.byte	42
	.byte	54
	.byte	62
	.byte	62
	.byte	54
	.byte	42
	.byte	54
	.byte	62
	.byte	62
	.byte	54
	.byte	42
	.byte	54
	.byte	62
	.byte	62
	.byte	54
	.byte	42
	.byte	54
	.byte	62
	.byte	62
	.byte	54
	.byte	42
	.byte	54
	.byte	62
	.byte	62
	.byte	54
	.byte	42
	.byte	54
	.byte	62
	.byte	62
	.byte	54
	.byte	42
	.byte	54
	.byte	62
	.byte	62
	.byte	54
	.byte	42
	.byte	54
	.byte	62
	.byte	62
	.byte	54
	.byte	42
	.byte	54
	.byte	62
	.byte	62
	.byte	54
	.byte	42
	.byte	54
	.byte	62
	.byte	0
	.byte	0
	.byte	0
	.byte	0
	.byte	0
	.byte	0
	.byte	0
	.byte	95
	.byte	0
	.byte	0
	.byte	0
	.byte	7
	.byte	0
	.byte	7
	.byte	0
	.byte	20
	.byte	62
	.byte	20
	.byte	62
	.byte	20
	.byte	4
	.byte	42
	.byte	127
	.byte	42
	.byte	16
	.byte	38
	.byte	22
	.byte	8
	.byte	52
	.byte	50
	.byte	54
	.byte	73
	.byte	89
	.byte	38
	.byte	80
	.byte	0
	.byte	0
	.byte	7
	.byte	0
	.byte	0
	.byte	0
	.byte	28
	.byte	34
	.byte	65
	.byte	0
	.byte	0
	.byte	65
	.byte	34
	.byte	28
	.byte	0
	.byte	42
	.byte	28
	.byte	127
	.byte	28
	.byte	42
	.byte	8
	.byte	8
	.byte	62
	.byte	8
	.byte	8
	.byte	0
	.byte	80
	.byte	48
	.byte	0
	.byte	0
	.byte	8
	.byte	8
	.byte	8
	.byte	8
	.byte	8
	.byte	0
	.byte	96
	.byte	96
	.byte	0
	.byte	0
	.byte	32
	.byte	16
	.byte	8
	.byte	4
	.byte	2
	.byte	62
	.byte	81
	.byte	73
	.byte	69
	.byte	62
	.byte	0
	.byte	66
	.byte	127
	.byte	64
	.byte	0
	.byte	66
	.byte	97
	.byte	81
	.byte	73
	.byte	70
	.byte	33
	.byte	65
	.byte	69
	.byte	75
	.byte	49
	.byte	24
	.byte	20
	.byte	18
	.byte	127
	.byte	16
	.byte	39
	.byte	69
	.byte	69
	.byte	69
	.byte	57
	.byte	60
	.byte	74
	.byte	73
	.byte	73
	.byte	48
	.byte	1
	.byte	1
	.byte	121
	.byte	5
	.byte	3
	.byte	54
	.byte	73
	.byte	73
	.byte	73
	.byte	54
	.byte	6
	.byte	73
	.byte	73
	.byte	41
	.byte	30
	.byte	0
	.byte	54
	.byte	54
	.byte	0
	.byte	0
	.byte	0
	.byte	86
	.byte	54
	.byte	0
	.byte	0
	.byte	8
	.byte	20
	.byte	34
	.byte	65
	.byte	0
	.byte	20
	.byte	20
	.byte	20
	.byte	20
	.byte	20
	.byte	65
	.byte	34
	.byte	20
	.byte	8
	.byte	0
	.byte	2
	.byte	1
	.byte	89
	.byte	5
	.byte	2
	.byte	28
	.byte	42
	.byte	54
	.byte	62
	.byte	12
	.byte	126
	.byte	9
	.byte	9
	.byte	9
	.byte	126
	.byte	127
	.byte	73
	.byte	73
	.byte	73
	.byte	62
	.byte	62
	.byte	65
	.byte	65
	.byte	65
	.byte	34
	.byte	127
	.byte	65
	.byte	65
	.byte	34
	.byte	28
	.byte	127
	.byte	73
	.byte	73
	.byte	73
	.byte	65
	.byte	127
	.byte	9
	.byte	9
	.byte	9
	.byte	1
	.byte	62
	.byte	65
	.byte	65
	.byte	73
	.byte	58
	.byte	127
	.byte	8
	.byte	8
	.byte	8
	.byte	127
	.byte	0
	.byte	65
	.byte	127
	.byte	65
	.byte	0
	.byte	32
	.byte	64
	.byte	65
	.byte	63
	.byte	1
	.byte	127
	.byte	8
	.byte	20
	.byte	34
	.byte	65
	.byte	127
	.byte	64
	.byte	64
	.byte	64
	.byte	64
	.byte	127
	.byte	2
	.byte	4
	.byte	2
	.byte	127
	.byte	127
	.byte	4
	.byte	8
	.byte	16
	.byte	127
	.byte	62
	.byte	65
	.byte	65
	.byte	65
	.byte	62
	.byte	127
	.byte	9
	.byte	9
	.byte	9
	.byte	6
	.byte	62
	.byte	65
	.byte	81
	.byte	33
	.byte	94
	.byte	127
	.byte	9
	.byte	25
	.byte	41
	.byte	70
	.byte	38
	.byte	73
	.byte	73
	.byte	73
	.byte	50
	.byte	1
	.byte	1
	.byte	127
	.byte	1
	.byte	1
	.byte	63
	.byte	64
	.byte	64
	.byte	64
	.byte	63
	.byte	31
	.byte	32
	.byte	64
	.byte	32
	.byte	31
	.byte	127
	.byte	32
	.byte	24
	.byte	32
	.byte	127
	.byte	99
	.byte	20
	.byte	8
	.byte	20
	.byte	99
	.byte	3
	.byte	4
	.byte	120
	.byte	4
	.byte	3
	.byte	97
	.byte	81
	.byte	73
	.byte	69
	.byte	67
	.byte	0
	.byte	127
	.byte	65
	.byte	65
	.byte	0
	.byte	2
	.byte	4
	.byte	8
	.byte	16
	.byte	32
	.byte	0
	.byte	65
	.byte	65
	.byte	127
	.byte	0
	.byte	4
	.byte	2
	.byte	1
	.byte	2
	.byte	4
	.byte	64
	.byte	64
	.byte	64
	.byte	64
	.byte	64
	.byte	0
	.byte	0
	.byte	7
	.byte	0
	.byte	0
	.byte	32
	.byte	84
	.byte	84
	.byte	84
	.byte	120
	.byte	127
	.byte	72
	.byte	68
	.byte	68
	.byte	56
	.byte	48
	.byte	72
	.byte	72
	.byte	72
	.byte	32
	.byte	56
	.byte	68
	.byte	68
	.byte	72
	.byte	127
	.byte	56
	.byte	84
	.byte	84
	.byte	84
	.byte	24
	.byte	8
	.byte	126
	.byte	9
	.byte	9
	.byte	2
	.byte	12
	.byte	82
	.byte	82
	.byte	82
	.byte	62
	.byte	127
	.byte	8
	.byte	4
	.byte	4
	.byte	120
	.byte	0
	.byte	68
	.byte	125
	.byte	64
	.byte	0
	.byte	32
	.byte	64
	.byte	64
	.byte	61
	.byte	0
	.byte	127
	.byte	16
	.byte	40
	.byte	68
	.byte	0
	.byte	0
	.byte	65
	.byte	127
	.byte	64
	.byte	0
	.byte	124
	.byte	4
	.byte	24
	.byte	4
	.byte	120
	.byte	124
	.byte	8
	.byte	4
	.byte	4
	.byte	120
	.byte	56
	.byte	68
	.byte	68
	.byte	68
	.byte	56
	.byte	-4
	.byte	20
	.byte	20
	.byte	20
	.byte	8
	.byte	8
	.byte	20
	.byte	20
	.byte	24
	.byte	124
	.byte	124
	.byte	8
	.byte	4
	.byte	4
	.byte	8
	.byte	72
	.byte	84
	.byte	84
	.byte	84
	.byte	32
	.byte	4
	.byte	63
	.byte	68
	.byte	64
	.byte	32
	.byte	60
	.byte	64
	.byte	64
	.byte	32
	.byte	124
	.byte	28
	.byte	32
	.byte	64
	.byte	32
	.byte	28
	.byte	60
	.byte	64
	.byte	56
	.byte	64
	.byte	60
	.byte	68
	.byte	40
	.byte	16
	.byte	40
	.byte	68
	.byte	12
	.byte	80
	.byte	80
	.byte	80
	.byte	60
	.byte	68
	.byte	100
	.byte	84
	.byte	76
	.byte	68
	.byte	0
	.byte	8
	.byte	54
	.byte	65
	.byte	0
	.byte	0
	.byte	0
	.byte	127
	.byte	0
	.byte	0
	.byte	0
	.byte	65
	.byte	54
	.byte	8
	.byte	0
	.byte	0
	.byte	7
	.byte	0
	.byte	7
	.byte	0
	.byte	62
	.byte	54
	.byte	42
	.byte	54
	.byte	62
	.comm	display_x,4,4
	.comm	display_y,4,4
	.bss
	.align	2
motor:
	.space	48
	.data
	.type	bt_status, %object
	.size	bt_status, 1
bt_status:
	.byte	4
	.bss
	.align	2
receiveBuf:
	.space	128
	.data
	.align	2
	.type	distance_state, %object
	.size	distance_state, 16
distance_state:
	.word	-1
	.word	-1
	.word	-1
	.word	-1
	.bss
	.align	2
data:
	.space	4
	.global	NXT_COLORSENSOR_PROTOCOLS
	.section	.rodata
	.align	2
	.type	NXT_COLORSENSOR_PROTOCOLS, %object
	.size	NXT_COLORSENSOR_PROTOCOLS, 7
NXT_COLORSENSOR_PROTOCOLS:
	.byte	-80
	.byte	112
	.byte	-16
	.byte	8
	.byte	-80
	.byte	-120
	.byte	-120
	.bss
	.align	2
ecrobot_inputs:
	.space	8
	.global	nxtway_gs_mode
	.type	nxtway_gs_mode, %object
	.size	nxtway_gs_mode, 1
nxtway_gs_mode:
	.space	1
	.comm	obstacle_flag,1,1
	.align	2
gyro_offset:
	.space	4
	.align	2
avg_cnt:
	.space	4
	.align	2
cal_start_time:
	.space	4
	.align	2
bt_receive_buf:
	.space	32
	.text
	.align	2
	.global	TaskMainOSEK_Task_ts1
	.type	TaskMainOSEK_Task_ts1, %function
TaskMainOSEK_Task_ts1:
.LFB27:
	.file 2 "nxtway_gs.c"
	.loc 2 485 0
	.cfi_startproc
	@ Function supports interworking.
	@ args = 0, pretend = 0, frame = 96
	@ frame_needed = 0, uses_anonymous_args = 0
	@ link register save eliminated.
	sub	sp, sp, #96
	.cfi_def_cfa_offset 96
	.loc 2 515 0
	ldr	r3, .L52
	ldrb	r3, [r3]	@ zero_extendqisi2
	cmp	r3, #1
	beq	.L30
	cmp	r3, #1
	bcc	.L31
	cmp	r3, #2
	beq	.L32
	.loc 2 619 0
	b	.L28
.L31:
	.loc 2 517 0
	ldr	r3, .L52+4
	mov	r2, #0
	str	r2, [r3]
	.loc 2 518 0
	ldr	r3, .L52+8
	mov	r2, #0
	str	r2, [r3]
	.loc 2 519 0
	mov	r3, #0
	str	r3, [sp, #92]
	.loc 2 520 0
	b	.L33
.L34:
	.loc 2 521 0
	.syntax divided
@ 521 "nxtway_gs.c" 1
	1:
        .section .wcet_annot
        .long 1b
        .long 1
        .long 32
                        .text
@ 0 "" 2
	.loc 2 522 0
	.arm
	.syntax divided
	ldr	r2, .L52+12
	ldr	r3, [sp, #92]
	add	r3, r2, r3
	mov	r2, #0
	strb	r2, [r3]
	.loc 2 523 0
	ldr	r3, [sp, #92]
	add	r3, r3, #1
	str	r3, [sp, #92]
.L33:
	.loc 2 520 0
	ldr	r3, [sp, #92]
	cmp	r3, #31
	ble	.L34
	.loc 2 528 0
	mov	r3, #1
	str	r3, [sp, #76]
	.loc 2 529 0
	ldr	r3, [sp, #76]
	str	r3, [sp, #72]
	.loc 2 530 0
	mov	r0, r0	@ nop
.L35:
	.loc 2 532 0
	ldr	r2, .L52+16
	ldr	r3, [sp, #72]
	str	r3, [r2]
	.loc 2 533 0
	ldr	r3, .L52
	mov	r2, #1
	strb	r2, [r3]
	.loc 2 534 0
	b	.L29
.L30:
	.loc 2 536 0
	mov	r3, #1
	strh	r3, [sp, #70]	@ movhi
	.loc 2 537 0
	ldrh	r2, [sp, #70]
	ldr	r3, .L52+4
	ldr	r3, [r3]
	add	r3, r2, r3
	ldr	r2, .L52+4
	str	r3, [r2]
	.loc 2 538 0
	ldr	r3, .L52+8
	ldr	r3, [r3]
	add	r3, r3, #1
	ldr	r2, .L52+8
	str	r3, [r2]
	.loc 2 539 0
	mov	r3, #1
	str	r3, [sp, #64]
	.loc 2 540 0
	ldr	r3, [sp, #64]
	str	r3, [sp, #60]
	.loc 2 541 0
	mov	r0, r0	@ nop
.L36:
	.loc 2 543 0
	ldr	r3, [sp, #60]
	str	r3, [sp, #56]
	.loc 2 544 0
	ldr	r3, .L52+16
	ldr	r3, [r3]
	ldr	r2, [sp, #56]
	rsb	r3, r3, r2
	cmp	r3, #9
	bls	.L50
	.loc 2 546 0
	mov	r3, #1
	str	r3, [sp, #52]
	.loc 2 547 0
	mov	r3, #1
	str	r3, [sp, #48]
	.loc 2 548 0
	mov	r3, #1
	str	r3, [sp, #44]
	.loc 2 550 0
	mov	r0, r0	@ nop
.L38:
	.loc 2 552 0
	ldr	r3, .L52
	mov	r2, #2
	strb	r2, [r3]
	.loc 2 554 0
	b	.L50
.L32:
	.loc 2 556 0
	ldr	r3, .L52+12
	str	r3, [sp, #40]
	.loc 2 557 0
	mov	r3, #32
	str	r3, [sp, #36]
	.loc 2 558 0
	ldr	r3, .L52+20
	ldrb	r3, [r3]	@ zero_extendqisi2
	cmp	r3, #7
	bne	.L51
	.loc 2 559 0
	ldr	r3, [sp, #36]
	cmp	r3, #126
	bhi	.L51
	.loc 2 561 0
	ldr	r3, .L52+24
	ldrb	r3, [r3]	@ zero_extendqisi2
	str	r3, [sp, #32]
	.loc 2 562 0
	ldr	r3, [sp, #32]
	cmp	r3, #0
	beq	.L51
	.loc 2 563 0
	ldr	r2, [sp, #32]
	ldr	r3, [sp, #36]
	cmp	r2, r3
	bhi	.L51
	.loc 2 564 0
	mov	r3, #0
	str	r3, [sp, #88]
	.loc 2 565 0
	b	.L40
.L41:
	.loc 2 566 0
	.syntax divided
@ 566 "nxtway_gs.c" 1
	1:
        .section .wcet_annot
        .long 1b
        .long 1
        .long 32
                        .text
@ 0 "" 2
	.loc 2 567 0
	.arm
	.syntax divided
	ldr	r3, [sp, #88]
	ldr	r2, [sp, #40]
	add	r3, r2, r3
	ldr	r2, [sp, #88]
	add	r2, r2, #2
	ldr	r1, .L52+24
	ldrb	r2, [r1, r2]	@ zero_extendqisi2
	strb	r2, [r3]
	.loc 2 568 0
	ldr	r3, [sp, #88]
	add	r3, r3, #1
	str	r3, [sp, #88]
.L40:
	.loc 2 565 0
	ldr	r2, [sp, #88]
	ldr	r3, [sp, #32]
	cmp	r2, r3
	bcc	.L41
	.loc 2 570 0
	b	.L42
.L51:
	.loc 2 575 0
	mov	r0, r0	@ nop
.L42:
	.loc 2 577 0
	ldr	r3, .L52+12
	ldrb	r3, [r3]	@ zero_extendqisi2
	rsb	r3, r3, #0
	and	r3, r3, #255
	strb	r3, [sp, #31]
	.loc 2 578 0
	ldr	r3, .L52+12
	ldrb	r3, [r3, #1]	@ zero_extendqisi2
	strb	r3, [sp, #30]
	.loc 2 579 0
	ldr	r3, .L52+28
	ldrb	r3, [r3]	@ zero_extendqisi2
	cmp	r3, #1
	bne	.L43
	.loc 2 580 0
	mvn	r3, #99
	strb	r3, [sp, #31]
	.loc 2 581 0
	mov	r3, #0
	strb	r3, [sp, #30]
.L43:
	.loc 2 583 0
	ldr	r3, .L52+32
	ldr	r3, [r3]
	strh	r3, [sp, #28]	@ movhi
	.loc 2 584 0
	mov	r0, r0	@ nop
.L44:
	.loc 2 586 0
	ldrh	r3, [sp, #28]	@ movhi
	strh	r3, [sp, #26]	@ movhi
	.loc 2 587 0
	mov	r3, #1
	str	r3, [sp, #20]
	.loc 2 588 0
	ldr	r3, [sp, #20]
	cmp	r3, #2
	bhi	.L45
	.loc 2 589 0
	ldr	r2, .L52+36
	ldr	r3, [sp, #20]
	ldr	r3, [r2, r3, asl #4]
	str	r3, [sp, #84]
	.loc 2 590 0
	b	.L46
.L45:
	.loc 2 592 0
	mov	r3, #0
	str	r3, [sp, #84]
	.loc 2 593 0
	mov	r0, r0	@ nop
.L46:
	.loc 2 596 0
	ldr	r3, [sp, #84]
	str	r3, [sp, #16]
	.loc 2 597 0
	mov	r3, #2
	str	r3, [sp, #12]
	.loc 2 598 0
	ldr	r3, [sp, #12]
	cmp	r3, #2
	bhi	.L47
	.loc 2 599 0
	ldr	r2, .L52+36
	ldr	r3, [sp, #12]
	ldr	r3, [r2, r3, asl #4]
	str	r3, [sp, #80]
	.loc 2 600 0
	b	.L48
.L47:
	.loc 2 602 0
	mov	r3, #0
	str	r3, [sp, #80]
	.loc 2 603 0
	mov	r0, r0	@ nop
.L48:
	.loc 2 606 0
	ldr	r3, [sp, #80]
	str	r3, [sp, #8]
	.loc 2 607 0
	mov	r3, #1
	strh	r3, [sp, #6]	@ movhi
	.loc 2 612 0
	b	.L29
.L50:
	.loc 2 554 0
	mov	r0, r0	@ nop
.L29:
	.loc 2 619 0 discriminator 1
	mov	r0, r0	@ nop
.L28:
	.loc 2 621 0
	add	sp, sp, #96
	.cfi_def_cfa_offset 0
	@ sp needed
	bx	lr
.L53:
	.align	2
.L52:
	.word	nxtway_gs_mode
	.word	gyro_offset
	.word	avg_cnt
	.word	bt_receive_buf
	.word	cal_start_time
	.word	bt_status
	.word	receiveBuf
	.word	obstacle_flag
	.word	ecrobot_inputs
	.word	motor
	.cfi_endproc
.LFE27:
	.size	TaskMainOSEK_Task_ts1, .-TaskMainOSEK_Task_ts1
	.align	2
	.global	TaskMainOSEK_Task_ts2
	.type	TaskMainOSEK_Task_ts2, %function
TaskMainOSEK_Task_ts2:
.LFB28:
	.loc 2 623 0
	.cfi_startproc
	@ Function supports interworking.
	@ args = 0, pretend = 0, frame = 16
	@ frame_needed = 0, uses_anonymous_args = 0
	@ link register save eliminated.
	sub	sp, sp, #16
	.cfi_def_cfa_offset 16
	.loc 2 630 0
	ldr	r3, .L60
	mov	r2, #0
	strb	r2, [r3]
	.loc 2 631 0
	ldr	r3, .L60+4
	ldrb	r3, [r3]	@ zero_extendqisi2
	cmp	r3, #2
	bne	.L59
	.loc 2 632 0
	mov	r3, #1
	strb	r3, [sp, #15]
	.loc 2 633 0
	mov	r3, #1
	str	r3, [sp, #8]
	.loc 2 634 0
	ldr	r3, [sp, #8]
	cmp	r3, #0
	bne	.L56
	.loc 2 635 0
	ldrb	r3, [sp, #15]	@ zero_extendqisi2
	ldrb	r2, [sp, #15]	@ zero_extendqisi2
	ldr	r1, .L60+8
	ldrb	r2, [r1, r2]	@ zero_extendqisi2
	mov	r1, r2
	ldr	r2, .L60+12
	str	r1, [r2, r3, asl #2]
.L56:
	.loc 2 638 0
	ldrb	r3, [sp, #15]	@ zero_extendqisi2
	ldr	r2, .L60+12
	ldr	r3, [r2, r3, asl #2]
	str	r3, [sp, #4]
	.loc 2 639 0
	mov	r0, r0	@ nop
.L57:
	.loc 2 641 0
	ldr	r3, [sp, #4]
	str	r3, [sp]
	.loc 2 642 0
	ldr	r3, [sp]
	cmp	r3, #25
	bgt	.L59
	.loc 2 643 0
	ldr	r3, .L60
	mov	r2, #1
	strb	r2, [r3]
	.loc 2 647 0
	mov	r0, r0	@ nop
.L59:
	mov	r0, r0	@ nop
	.loc 2 649 0
	add	sp, sp, #16
	.cfi_def_cfa_offset 0
	@ sp needed
	bx	lr
.L61:
	.align	2
.L60:
	.word	obstacle_flag
	.word	nxtway_gs_mode
	.word	data
	.word	distance_state
	.cfi_endproc
.LFE28:
	.size	TaskMainOSEK_Task_ts2, .-TaskMainOSEK_Task_ts2
	.align	2
	.global	TaskMainOSEK_Task_Background
	.type	TaskMainOSEK_Task_Background, %function
TaskMainOSEK_Task_Background:
.LFB29:
	.loc 2 652 0
	.cfi_startproc
	@ Function supports interworking.
	@ args = 0, pretend = 0, frame = 864
	@ frame_needed = 0, uses_anonymous_args = 0
	@ link register save eliminated.
	sub	sp, sp, #864
	.cfi_def_cfa_offset 864
	.loc 2 920 0
	b	.L63
.L386:
	.loc 2 921 0
	.syntax divided
@ 921 "nxtway_gs.c" 1
	1:
        .section .wcet_annot
        .long 1b
        .long 1
        .long 30
                        .text
@ 0 "" 2
	.loc 2 923 0
	.arm
	.syntax divided
	mov	r3, #0
	str	r3, [sp, #508]
	.loc 2 925 0
	ldr	r3, [sp, #508]
	cmp	r3, #0
	beq	.L387
	.loc 2 926 0
	ldr	r3, .L408
	mov	r2, #0
	str	r2, [r3]
	.loc 2 928 0
	mov	r0, r0	@ nop
.L64:
.L387:
	.loc 2 931 0
	mov	r0, r0	@ nop
.L65:
	.loc 2 933 0
	mov	r3, #0
	str	r3, [sp, #504]
	.loc 2 934 0
	mov	r3, #0
	str	r3, [sp, #500]
	.loc 2 935 0
	ldr	r2, .L408+8
	ldr	r3, [sp, #504]
	str	r3, [r2]
	.loc 2 936 0
	ldr	r2, .L408+12
	ldr	r3, [sp, #500]
	str	r3, [r2]
	.loc 2 937 0
	mov	r0, r0	@ nop
.L66:
	.loc 2 939 0
	mov	r3, #12
	str	r3, [sp, #688]
	.loc 2 940 0
	b	.L67
.L74:
	.loc 2 941 0
	.syntax divided
@ 941 "nxtway_gs.c" 1
	1:
        .section .wcet_annot
        .long 1b
        .long 1
        .long 12
                        .text
@ 0 "" 2
	.loc 2 942 0
	.arm
	.syntax divided
	ldr	r3, [sp, #688]
	cmp	r3, #10
	beq	.L68
	.loc 2 943 0
	mov	r3, #1
	str	r3, [sp, #496]
	.loc 2 944 0
	ldr	r3, [sp, #496]
	cmp	r3, #0
	blt	.L388
	.loc 2 945 0
	ldr	r3, [sp, #496]
	cmp	r3, #127
	bgt	.L388
	.loc 2 946 0
	ldr	r3, .L408+8
	ldr	r3, [r3]
	cmp	r3, #0
	blt	.L388
	.loc 2 947 0
	ldr	r3, .L408+8
	ldr	r3, [r3]
	cmp	r3, #15
	bgt	.L388
	.loc 2 948 0
	ldr	r3, .L408+12
	ldr	r3, [r3]
	cmp	r3, #0
	blt	.L388
	.loc 2 949 0
	ldr	r3, .L408+12
	ldr	r3, [r3]
	cmp	r3, #7
	bgt	.L388
	.loc 2 952 0
	mov	r3, #0
	str	r3, [sp, #608]
	.loc 2 953 0
	b	.L70
.L71:
	.loc 2 954 0
	.syntax divided
@ 954 "nxtway_gs.c" 1
	1:
        .section .wcet_annot
        .long 1b
        .long 1
        .long 5
                        .text
@ 0 "" 2
	.loc 2 958 0
	.arm
	.syntax divided
	ldr	r3, [sp, #608]
	add	r3, r3, #1
	str	r3, [sp, #608]
.L70:
	.loc 2 953 0
	ldr	r3, [sp, #608]
	cmp	r3, #4
	ble	.L71
.L388:
	.loc 2 966 0
	mov	r0, r0	@ nop
.L72:
	.loc 2 968 0
	ldr	r3, .L408+8
	ldr	r3, [r3]
	add	r3, r3, #1
	ldr	r2, .L408+8
	str	r3, [r2]
	b	.L73
.L68:
	.loc 2 970 0
	ldr	r3, .L408+8
	mov	r2, #0
	str	r2, [r3]
	.loc 2 971 0
	ldr	r3, .L408+12
	ldr	r3, [r3]
	add	r3, r3, #1
	ldr	r2, .L408+12
	str	r3, [r2]
.L73:
	.loc 2 973 0
	ldr	r3, [sp, #688]
	add	r3, r3, #1
	str	r3, [sp, #688]
.L67:
	.loc 2 940 0
	ldr	r3, [sp, #688]
	cmp	r3, #0
	bne	.L74
	.loc 2 975 0
	mov	r0, r0	@ nop
.L75:
	.loc 2 977 0
	mov	r3, #0
	str	r3, [sp, #492]
	.loc 2 978 0
	mov	r3, #1
	str	r3, [sp, #488]
	.loc 2 979 0
	ldr	r2, .L408+8
	ldr	r3, [sp, #492]
	str	r3, [r2]
	.loc 2 980 0
	ldr	r2, .L408+12
	ldr	r3, [sp, #488]
	str	r3, [r2]
	.loc 2 981 0
	mov	r0, r0	@ nop
.L76:
	.loc 2 983 0
	mov	r3, #4
	str	r3, [sp, #684]
	.loc 2 984 0
	b	.L77
.L84:
	.loc 2 985 0
	.syntax divided
@ 985 "nxtway_gs.c" 1
	1:
        .section .wcet_annot
        .long 1b
        .long 1
        .long 4
                        .text
@ 0 "" 2
	.loc 2 986 0
	.arm
	.syntax divided
	ldr	r3, [sp, #684]
	cmp	r3, #10
	beq	.L78
	.loc 2 987 0
	mov	r3, #1
	str	r3, [sp, #484]
	.loc 2 988 0
	ldr	r3, [sp, #484]
	cmp	r3, #0
	blt	.L389
	.loc 2 989 0
	ldr	r3, [sp, #484]
	cmp	r3, #127
	bgt	.L389
	.loc 2 990 0
	ldr	r3, .L408+8
	ldr	r3, [r3]
	cmp	r3, #0
	blt	.L389
	.loc 2 991 0
	ldr	r3, .L408+8
	ldr	r3, [r3]
	cmp	r3, #15
	bgt	.L389
	.loc 2 992 0
	ldr	r3, .L408+12
	ldr	r3, [r3]
	cmp	r3, #0
	blt	.L389
	.loc 2 993 0
	ldr	r3, .L408+12
	ldr	r3, [r3]
	cmp	r3, #7
	bgt	.L389
	.loc 2 996 0
	mov	r3, #0
	str	r3, [sp, #604]
	.loc 2 997 0
	b	.L80
.L81:
	.loc 2 998 0
	.syntax divided
@ 998 "nxtway_gs.c" 1
	1:
        .section .wcet_annot
        .long 1b
        .long 1
        .long 5
                        .text
@ 0 "" 2
	.loc 2 1002 0
	.arm
	.syntax divided
	ldr	r3, [sp, #604]
	add	r3, r3, #1
	str	r3, [sp, #604]
.L80:
	.loc 2 997 0
	ldr	r3, [sp, #604]
	cmp	r3, #4
	ble	.L81
.L389:
	.loc 2 1010 0
	mov	r0, r0	@ nop
.L82:
	.loc 2 1012 0
	ldr	r3, .L408+8
	ldr	r3, [r3]
	add	r3, r3, #1
	ldr	r2, .L408+8
	str	r3, [r2]
	b	.L83
.L78:
	.loc 2 1014 0
	ldr	r3, .L408+8
	mov	r2, #0
	str	r2, [r3]
	.loc 2 1015 0
	ldr	r3, .L408+12
	ldr	r3, [r3]
	add	r3, r3, #1
	ldr	r2, .L408+12
	str	r3, [r2]
.L83:
	.loc 2 1017 0
	ldr	r3, [sp, #684]
	add	r3, r3, #1
	str	r3, [sp, #684]
.L77:
	.loc 2 984 0
	ldr	r3, [sp, #684]
	cmp	r3, #0
	bne	.L84
	.loc 2 1019 0
	mov	r0, r0	@ nop
.L85:
	.loc 2 1021 0
	mov	r3, #1
	str	r3, [sp, #480]
	.loc 2 1022 0
	mov	r3, #1
	str	r3, [sp, #476]
	.loc 2 1023 0
	mov	r3, #0
	str	r3, [sp, #472]
	.loc 2 1024 0
	ldr	r3, [sp, #476]
	str	r3, [sp, #848]
	.loc 2 1025 0
	ldr	r3, [sp, #472]
	str	r3, [sp, #844]
	.loc 2 1026 0
	mov	r3, #0
	str	r3, [sp, #468]
	.loc 2 1028 0
	mov	r3, #0
	str	r3, [sp, #840]
	.loc 2 1030 0
	ldr	r3, [sp, #844]
	cmp	r3, #10
	bls	.L87
	.loc 2 1031 0
	mov	r3, #11
	str	r3, [sp, #844]
	.loc 2 1033 0
	b	.L87
.L88:
	.loc 2 1034 0
	.syntax divided
@ 1034 "nxtway_gs.c" 1
	1:
        .section .wcet_annot
        .long 1b
        .long 1
        .long 8
                        .text
@ 0 "" 2
	.loc 2 1036 0
	.arm
	.syntax divided
	ldr	r3, [sp, #840]
	add	r3, r3, #1
	str	r3, [sp, #840]
	.loc 2 1038 0
	mov	r3, #1
	str	r3, [sp, #848]
.L87:
	.loc 2 1033 0
	ldr	r3, [sp, #848]
	cmp	r3, #0
	bne	.L88
	.loc 2 1040 0
	ldr	r3, [sp, #840]
	cmp	r3, #0
	bne	.L89
	.loc 2 1042 0
	ldr	r3, [sp, #840]
	add	r3, r3, #1
	str	r3, [sp, #840]
.L89:
	.loc 2 1045 0
	ldr	r3, [sp, #468]
	cmp	r3, #0
	beq	.L91
	.loc 2 1047 0
	ldr	r3, [sp, #840]
	add	r3, r3, #1
	str	r3, [sp, #840]
	.loc 2 1050 0
	b	.L91
.L92:
	.loc 2 1051 0
	.syntax divided
@ 1051 "nxtway_gs.c" 1
	1:
        .section .wcet_annot
        .long 1b
        .long 1
        .long 8
                        .text
@ 0 "" 2
	.loc 2 1053 0
	.arm
	.syntax divided
	ldr	r3, [sp, #840]
	add	r3, r3, #1
	str	r3, [sp, #840]
.L91:
	.loc 2 1050 0
	ldr	r2, [sp, #840]
	ldr	r3, [sp, #844]
	cmp	r2, r3
	bcc	.L92
	.loc 2 1056 0
	mov	r3, #5
	str	r3, [sp, #680]
	.loc 2 1057 0
	b	.L93
.L100:
	.loc 2 1058 0
	.syntax divided
@ 1058 "nxtway_gs.c" 1
	1:
        .section .wcet_annot
        .long 1b
        .long 1
        .long 5
                        .text
@ 0 "" 2
	.loc 2 1059 0
	.arm
	.syntax divided
	ldr	r3, [sp, #680]
	cmp	r3, #10
	beq	.L94
	.loc 2 1060 0
	mov	r3, #1
	str	r3, [sp, #464]
	.loc 2 1061 0
	ldr	r3, [sp, #464]
	cmp	r3, #0
	blt	.L390
	.loc 2 1062 0
	ldr	r3, [sp, #464]
	cmp	r3, #127
	bgt	.L390
	.loc 2 1063 0
	ldr	r3, .L408+8
	ldr	r3, [r3]
	cmp	r3, #0
	blt	.L390
	.loc 2 1064 0
	ldr	r3, .L408+8
	ldr	r3, [r3]
	cmp	r3, #15
	bgt	.L390
	.loc 2 1065 0
	ldr	r3, .L408+12
	ldr	r3, [r3]
	cmp	r3, #0
	blt	.L390
	.loc 2 1066 0
	ldr	r3, .L408+12
	ldr	r3, [r3]
	cmp	r3, #7
	bgt	.L390
	.loc 2 1069 0
	mov	r3, #0
	str	r3, [sp, #600]
	.loc 2 1070 0
	b	.L96
.L97:
	.loc 2 1071 0
	.syntax divided
@ 1071 "nxtway_gs.c" 1
	1:
        .section .wcet_annot
        .long 1b
        .long 1
        .long 5
                        .text
@ 0 "" 2
	.loc 2 1075 0
	.arm
	.syntax divided
	ldr	r3, [sp, #600]
	add	r3, r3, #1
	str	r3, [sp, #600]
.L96:
	.loc 2 1070 0
	ldr	r3, [sp, #600]
	cmp	r3, #4
	ble	.L97
.L390:
	.loc 2 1083 0
	mov	r0, r0	@ nop
.L98:
	.loc 2 1085 0
	ldr	r3, .L408+8
	ldr	r3, [r3]
	add	r3, r3, #1
	ldr	r2, .L408+8
	str	r3, [r2]
	b	.L99
.L94:
	.loc 2 1087 0
	ldr	r3, .L408+8
	mov	r2, #0
	str	r2, [r3]
	.loc 2 1088 0
	ldr	r3, .L408+12
	ldr	r3, [r3]
	add	r3, r3, #1
	ldr	r2, .L408+12
	str	r3, [r2]
.L99:
	.loc 2 1090 0
	ldr	r3, [sp, #680]
	add	r3, r3, #1
	str	r3, [sp, #680]
.L93:
	.loc 2 1057 0
	ldr	r3, [sp, #680]
	cmp	r3, #0
	bne	.L100
	.loc 2 1092 0
	mov	r0, r0	@ nop
	.loc 2 1094 0
	mov	r0, r0	@ nop
	.loc 2 1096 0
	mov	r0, r0	@ nop
.L101:
.L102:
.L103:
	.loc 2 1098 0
	mov	r3, #0
	str	r3, [sp, #460]
	.loc 2 1099 0
	mov	r3, #2
	str	r3, [sp, #456]
	.loc 2 1100 0
	ldr	r2, .L408+8
	ldr	r3, [sp, #460]
	str	r3, [r2]
	.loc 2 1101 0
	ldr	r2, .L408+12
	ldr	r3, [sp, #456]
	str	r3, [r2]
	.loc 2 1102 0
	mov	r0, r0	@ nop
.L104:
	.loc 2 1104 0
	mov	r3, #4
	str	r3, [sp, #676]
	.loc 2 1105 0
	b	.L105
.L112:
	.loc 2 1106 0
	.syntax divided
@ 1106 "nxtway_gs.c" 1
	1:
        .section .wcet_annot
        .long 1b
        .long 1
        .long 4
                        .text
@ 0 "" 2
	.loc 2 1107 0
	.arm
	.syntax divided
	ldr	r3, [sp, #676]
	cmp	r3, #10
	beq	.L106
	.loc 2 1108 0
	mov	r3, #1
	str	r3, [sp, #452]
	.loc 2 1109 0
	ldr	r3, [sp, #452]
	cmp	r3, #0
	blt	.L391
	.loc 2 1110 0
	ldr	r3, [sp, #452]
	cmp	r3, #127
	bgt	.L391
	.loc 2 1111 0
	ldr	r3, .L408+8
	ldr	r3, [r3]
	cmp	r3, #0
	blt	.L391
	.loc 2 1112 0
	ldr	r3, .L408+8
	ldr	r3, [r3]
	cmp	r3, #15
	bgt	.L391
	.loc 2 1113 0
	ldr	r3, .L408+12
	ldr	r3, [r3]
	cmp	r3, #0
	blt	.L391
	.loc 2 1114 0
	ldr	r3, .L408+12
	ldr	r3, [r3]
	cmp	r3, #7
	bgt	.L391
	.loc 2 1117 0
	mov	r3, #0
	str	r3, [sp, #596]
	.loc 2 1118 0
	b	.L108
.L109:
	.loc 2 1119 0
	.syntax divided
@ 1119 "nxtway_gs.c" 1
	1:
        .section .wcet_annot
        .long 1b
        .long 1
        .long 5
                        .text
@ 0 "" 2
	.loc 2 1123 0
	.arm
	.syntax divided
	ldr	r3, [sp, #596]
	add	r3, r3, #1
	str	r3, [sp, #596]
.L108:
	.loc 2 1118 0
	ldr	r3, [sp, #596]
	cmp	r3, #4
	ble	.L109
.L391:
	.loc 2 1131 0
	mov	r0, r0	@ nop
.L110:
	.loc 2 1133 0
	ldr	r3, .L408+8
	ldr	r3, [r3]
	add	r3, r3, #1
	ldr	r2, .L408+8
	str	r3, [r2]
	b	.L111
.L106:
	.loc 2 1135 0
	ldr	r3, .L408+8
	mov	r2, #0
	str	r2, [r3]
	.loc 2 1136 0
	ldr	r3, .L408+12
	ldr	r3, [r3]
	add	r3, r3, #1
	ldr	r2, .L408+12
	str	r3, [r2]
.L111:
	.loc 2 1138 0
	ldr	r3, [sp, #676]
	add	r3, r3, #1
	str	r3, [sp, #676]
.L105:
	.loc 2 1105 0
	ldr	r3, [sp, #676]
	cmp	r3, #0
	bne	.L112
	.loc 2 1140 0
	mov	r0, r0	@ nop
.L113:
	.loc 2 1142 0
	mov	r3, #1
	str	r3, [sp, #448]
	.loc 2 1143 0
	mov	r3, #0
	str	r3, [sp, #444]
	.loc 2 1144 0
	ldr	r3, [sp, #448]
	str	r3, [sp, #836]
	.loc 2 1145 0
	ldr	r3, [sp, #444]
	str	r3, [sp, #832]
	.loc 2 1146 0
	mov	r3, #0
	str	r3, [sp, #440]
	.loc 2 1148 0
	mov	r3, #0
	str	r3, [sp, #828]
	.loc 2 1150 0
	ldr	r3, [sp, #832]
	cmp	r3, #10
	bls	.L115
	.loc 2 1151 0
	mov	r3, #11
	str	r3, [sp, #832]
	.loc 2 1153 0
	b	.L115
.L116:
	.loc 2 1154 0
	.syntax divided
@ 1154 "nxtway_gs.c" 1
	1:
        .section .wcet_annot
        .long 1b
        .long 1
        .long 4
                        .text
@ 0 "" 2
	.loc 2 1156 0
	.arm
	.syntax divided
	ldr	r3, [sp, #828]
	add	r3, r3, #1
	str	r3, [sp, #828]
	.loc 2 1158 0
	mov	r3, #1
	str	r3, [sp, #836]
.L115:
	.loc 2 1153 0
	ldr	r3, [sp, #836]
	cmp	r3, #0
	bne	.L116
	.loc 2 1160 0
	ldr	r3, [sp, #828]
	cmp	r3, #0
	bne	.L117
	.loc 2 1162 0
	ldr	r3, [sp, #828]
	add	r3, r3, #1
	str	r3, [sp, #828]
.L117:
	.loc 2 1165 0
	ldr	r3, [sp, #440]
	cmp	r3, #0
	beq	.L119
	.loc 2 1167 0
	ldr	r3, [sp, #828]
	add	r3, r3, #1
	str	r3, [sp, #828]
	.loc 2 1170 0
	b	.L119
.L120:
	.loc 2 1171 0
	.syntax divided
@ 1171 "nxtway_gs.c" 1
	1:
        .section .wcet_annot
        .long 1b
        .long 1
        .long 5
                        .text
@ 0 "" 2
	.loc 2 1173 0
	.arm
	.syntax divided
	ldr	r3, [sp, #828]
	add	r3, r3, #1
	str	r3, [sp, #828]
.L119:
	.loc 2 1170 0
	ldr	r2, [sp, #828]
	ldr	r3, [sp, #832]
	cmp	r2, r3
	bcc	.L120
	.loc 2 1176 0
	mov	r3, #5
	str	r3, [sp, #672]
	.loc 2 1177 0
	b	.L121
.L128:
	.loc 2 1178 0
	.syntax divided
@ 1178 "nxtway_gs.c" 1
	1:
        .section .wcet_annot
        .long 1b
        .long 1
        .long 5
                        .text
@ 0 "" 2
	.loc 2 1179 0
	.arm
	.syntax divided
	ldr	r3, [sp, #672]
	cmp	r3, #10
	beq	.L122
	.loc 2 1180 0
	mov	r3, #1
	str	r3, [sp, #436]
	.loc 2 1181 0
	ldr	r3, [sp, #436]
	cmp	r3, #0
	blt	.L392
	.loc 2 1182 0
	ldr	r3, [sp, #436]
	cmp	r3, #127
	bgt	.L392
	.loc 2 1183 0
	ldr	r3, .L408+8
	ldr	r3, [r3]
	cmp	r3, #0
	blt	.L392
	.loc 2 1184 0
	ldr	r3, .L408+8
	ldr	r3, [r3]
	cmp	r3, #15
	bgt	.L392
	.loc 2 1185 0
	ldr	r3, .L408+12
	ldr	r3, [r3]
	cmp	r3, #0
	blt	.L392
	.loc 2 1186 0
	ldr	r3, .L408+12
	ldr	r3, [r3]
	cmp	r3, #7
	bgt	.L392
	.loc 2 1189 0
	mov	r3, #0
	str	r3, [sp, #592]
	.loc 2 1190 0
	b	.L124
.L125:
	.loc 2 1191 0
	.syntax divided
@ 1191 "nxtway_gs.c" 1
	1:
        .section .wcet_annot
        .long 1b
        .long 1
        .long 5
                        .text
@ 0 "" 2
	.loc 2 1195 0
	.arm
	.syntax divided
	ldr	r3, [sp, #592]
	add	r3, r3, #1
	str	r3, [sp, #592]
.L124:
	.loc 2 1190 0
	ldr	r3, [sp, #592]
	cmp	r3, #4
	ble	.L125
.L392:
	.loc 2 1203 0
	mov	r0, r0	@ nop
.L126:
	.loc 2 1205 0
	ldr	r3, .L408+8
	ldr	r3, [r3]
	add	r3, r3, #1
	ldr	r2, .L408+8
	str	r3, [r2]
	b	.L127
.L122:
	.loc 2 1207 0
	ldr	r3, .L408+8
	mov	r2, #0
	str	r2, [r3]
	.loc 2 1208 0
	ldr	r3, .L408+12
	ldr	r3, [r3]
	add	r3, r3, #1
	ldr	r2, .L408+12
	str	r3, [r2]
.L127:
	.loc 2 1210 0
	ldr	r3, [sp, #672]
	add	r3, r3, #1
	str	r3, [sp, #672]
.L121:
	.loc 2 1177 0
	ldr	r3, [sp, #672]
	cmp	r3, #0
	bne	.L128
	.loc 2 1212 0
	mov	r0, r0	@ nop
	.loc 2 1214 0
	mov	r0, r0	@ nop
	.loc 2 1216 0
	mov	r0, r0	@ nop
.L129:
.L130:
.L131:
	.loc 2 1218 0
	mov	r3, #0
	str	r3, [sp, #432]
	.loc 2 1219 0
	mov	r3, #3
	str	r3, [sp, #428]
	.loc 2 1220 0
	ldr	r2, .L408+8
	ldr	r3, [sp, #432]
	str	r3, [r2]
	.loc 2 1221 0
	ldr	r2, .L408+12
	ldr	r3, [sp, #428]
	str	r3, [r2]
	.loc 2 1222 0
	mov	r0, r0	@ nop
.L132:
	.loc 2 1224 0
	mov	r3, #3
	str	r3, [sp, #668]
	.loc 2 1225 0
	b	.L133
.L140:
	.loc 2 1226 0
	.syntax divided
@ 1226 "nxtway_gs.c" 1
	1:
        .section .wcet_annot
        .long 1b
        .long 1
        .long 3
                        .text
@ 0 "" 2
	.loc 2 1227 0
	.arm
	.syntax divided
	ldr	r3, [sp, #668]
	cmp	r3, #10
	beq	.L134
	.loc 2 1228 0
	mov	r3, #1
	str	r3, [sp, #424]
	.loc 2 1229 0
	ldr	r3, [sp, #424]
	cmp	r3, #0
	blt	.L393
	.loc 2 1230 0
	ldr	r3, [sp, #424]
	cmp	r3, #127
	bgt	.L393
	.loc 2 1231 0
	ldr	r3, .L408+8
	ldr	r3, [r3]
	cmp	r3, #0
	blt	.L393
	.loc 2 1232 0
	ldr	r3, .L408+8
	ldr	r3, [r3]
	cmp	r3, #15
	bgt	.L393
	.loc 2 1233 0
	ldr	r3, .L408+12
	ldr	r3, [r3]
	cmp	r3, #0
	blt	.L393
	.loc 2 1234 0
	ldr	r3, .L408+12
	ldr	r3, [r3]
	cmp	r3, #7
	bgt	.L393
	.loc 2 1237 0
	mov	r3, #0
	str	r3, [sp, #588]
	.loc 2 1238 0
	b	.L136
.L137:
	.loc 2 1239 0
	.syntax divided
@ 1239 "nxtway_gs.c" 1
	1:
        .section .wcet_annot
        .long 1b
        .long 1
        .long 5
                        .text
@ 0 "" 2
	.loc 2 1243 0
	.arm
	.syntax divided
	ldr	r3, [sp, #588]
	add	r3, r3, #1
	str	r3, [sp, #588]
.L136:
	.loc 2 1238 0
	ldr	r3, [sp, #588]
	cmp	r3, #4
	ble	.L137
.L393:
	.loc 2 1251 0
	mov	r0, r0	@ nop
.L138:
	.loc 2 1253 0
	ldr	r3, .L408+8
	ldr	r3, [r3]
	add	r3, r3, #1
	ldr	r2, .L408+8
	str	r3, [r2]
	b	.L139
.L134:
	.loc 2 1255 0
	ldr	r3, .L408+8
	mov	r2, #0
	str	r2, [r3]
	.loc 2 1256 0
	ldr	r3, .L408+12
	ldr	r3, [r3]
	add	r3, r3, #1
	ldr	r2, .L408+12
	str	r3, [r2]
.L139:
	.loc 2 1258 0
	ldr	r3, [sp, #668]
	add	r3, r3, #1
	str	r3, [sp, #668]
.L133:
	.loc 2 1225 0
	ldr	r3, [sp, #668]
	cmp	r3, #0
	bne	.L140
	.loc 2 1260 0
	mov	r0, r0	@ nop
.L141:
	.loc 2 1262 0
	mov	r3, #0
	str	r3, [sp, #420]
	.loc 2 1263 0
	ldr	r3, [sp, #420]
	cmp	r3, #2
	bhi	.L142
	.loc 2 1264 0
	ldr	r2, .L408+4
	ldr	r3, [sp, #420]
	ldr	r3, [r2, r3, asl #4]
	str	r3, [sp, #860]
	.loc 2 1265 0
	b	.L143
.L142:
	.loc 2 1267 0
	mov	r3, #0
	str	r3, [sp, #860]
	.loc 2 1268 0
	mov	r0, r0	@ nop
.L143:
	.loc 2 1271 0
	ldr	r3, [sp, #860]
	str	r3, [sp, #416]
	.loc 2 1272 0
	ldr	r3, [sp, #416]
	str	r3, [sp, #412]
	.loc 2 1273 0
	mov	r3, #0
	str	r3, [sp, #408]
	.loc 2 1274 0
	ldr	r3, [sp, #412]
	cmp	r3, #0
	bge	.L144
	.loc 2 1275 0
	ldr	r3, [sp, #412]
	rsb	r3, r3, #0
	str	r3, [sp, #752]
	b	.L145
.L144:
	.loc 2 1277 0
	ldr	r3, [sp, #412]
	str	r3, [sp, #752]
.L145:
	.loc 2 1279 0
	ldr	r3, [sp, #752]
	str	r3, [sp, #748]
	.loc 2 1280 0
	ldr	r3, [sp, #408]
	str	r3, [sp, #744]
	.loc 2 1281 0
	ldr	r3, [sp, #412]
	mov	r3, r3, lsr #31
	and	r3, r3, #255
	str	r3, [sp, #404]
	.loc 2 1283 0
	mov	r3, #0
	str	r3, [sp, #740]
	.loc 2 1285 0
	ldr	r3, [sp, #744]
	cmp	r3, #10
	bls	.L147
	.loc 2 1286 0
	mov	r3, #11
	str	r3, [sp, #744]
	.loc 2 1288 0
	b	.L147
.L148:
	.loc 2 1289 0
	.syntax divided
@ 1289 "nxtway_gs.c" 1
	1:
        .section .wcet_annot
        .long 1b
        .long 1
        .long 11
                        .text
@ 0 "" 2
	.loc 2 1291 0
	.arm
	.syntax divided
	ldr	r3, [sp, #740]
	add	r3, r3, #1
	str	r3, [sp, #740]
	.loc 2 1293 0
	mov	r3, #1
	str	r3, [sp, #748]
.L147:
	.loc 2 1288 0
	ldr	r3, [sp, #748]
	cmp	r3, #0
	bne	.L148
	.loc 2 1295 0
	ldr	r3, [sp, #740]
	cmp	r3, #0
	bne	.L149
	.loc 2 1297 0
	ldr	r3, [sp, #740]
	add	r3, r3, #1
	str	r3, [sp, #740]
.L149:
	.loc 2 1300 0
	ldr	r3, [sp, #404]
	cmp	r3, #0
	beq	.L151
	.loc 2 1302 0
	ldr	r3, [sp, #740]
	add	r3, r3, #1
	str	r3, [sp, #740]
	.loc 2 1305 0
	b	.L151
.L152:
	.loc 2 1306 0
	.syntax divided
@ 1306 "nxtway_gs.c" 1
	1:
        .section .wcet_annot
        .long 1b
        .long 1
        .long 5
                        .text
@ 0 "" 2
	.loc 2 1308 0
	.arm
	.syntax divided
	ldr	r3, [sp, #740]
	add	r3, r3, #1
	str	r3, [sp, #740]
.L151:
	.loc 2 1305 0
	ldr	r2, [sp, #740]
	ldr	r3, [sp, #744]
	cmp	r2, r3
	bcc	.L152
	.loc 2 1311 0
	mov	r3, #5
	str	r3, [sp, #664]
	.loc 2 1312 0
	b	.L153
.L160:
	.loc 2 1313 0
	.syntax divided
@ 1313 "nxtway_gs.c" 1
	1:
        .section .wcet_annot
        .long 1b
        .long 1
        .long 5
                        .text
@ 0 "" 2
	.loc 2 1314 0
	.arm
	.syntax divided
	ldr	r3, [sp, #664]
	cmp	r3, #10
	beq	.L154
	.loc 2 1315 0
	mov	r3, #1
	str	r3, [sp, #400]
	.loc 2 1316 0
	ldr	r3, [sp, #400]
	cmp	r3, #0
	blt	.L394
	.loc 2 1317 0
	ldr	r3, [sp, #400]
	cmp	r3, #127
	bgt	.L394
	.loc 2 1318 0
	ldr	r3, .L408+8
	ldr	r3, [r3]
	cmp	r3, #0
	blt	.L394
	.loc 2 1319 0
	ldr	r3, .L408+8
	ldr	r3, [r3]
	cmp	r3, #15
	bgt	.L394
	.loc 2 1320 0
	ldr	r3, .L408+12
	ldr	r3, [r3]
	cmp	r3, #0
	blt	.L394
	.loc 2 1321 0
	ldr	r3, .L408+12
	ldr	r3, [r3]
	cmp	r3, #7
	bgt	.L394
	.loc 2 1324 0
	mov	r3, #0
	str	r3, [sp, #584]
	.loc 2 1325 0
	b	.L156
.L157:
	.loc 2 1326 0
	.syntax divided
@ 1326 "nxtway_gs.c" 1
	1:
        .section .wcet_annot
        .long 1b
        .long 1
        .long 5
                        .text
@ 0 "" 2
	.loc 2 1330 0
	.arm
	.syntax divided
	ldr	r3, [sp, #584]
	add	r3, r3, #1
	str	r3, [sp, #584]
.L156:
	.loc 2 1325 0
	ldr	r3, [sp, #584]
	cmp	r3, #4
	ble	.L157
.L394:
	.loc 2 1338 0
	mov	r0, r0	@ nop
.L158:
	.loc 2 1340 0
	ldr	r3, .L408+8
	ldr	r3, [r3]
	add	r3, r3, #1
	ldr	r2, .L408+8
	str	r3, [r2]
	b	.L159
.L154:
	.loc 2 1342 0
	ldr	r3, .L408+8
	mov	r2, #0
	str	r2, [r3]
	.loc 2 1343 0
	ldr	r3, .L408+12
	ldr	r3, [r3]
	add	r3, r3, #1
	ldr	r2, .L408+12
	str	r3, [r2]
.L159:
	.loc 2 1345 0
	ldr	r3, [sp, #664]
	add	r3, r3, #1
	str	r3, [sp, #664]
.L153:
	.loc 2 1312 0
	ldr	r3, [sp, #664]
	cmp	r3, #0
	bne	.L160
	.loc 2 1347 0
	mov	r0, r0	@ nop
	.loc 2 1349 0
	mov	r0, r0	@ nop
	.loc 2 1351 0
	mov	r0, r0	@ nop
.L161:
.L162:
.L163:
	.loc 2 1353 0
	mov	r3, #1
	str	r3, [sp, #396]
	.loc 2 1354 0
	ldr	r3, [sp, #396]
	cmp	r3, #2
	bhi	.L164
	.loc 2 1355 0
	ldr	r2, .L408+4
	ldr	r3, [sp, #396]
	ldr	r3, [r2, r3, asl #4]
	str	r3, [sp, #856]
	.loc 2 1356 0
	b	.L165
.L164:
	.loc 2 1358 0
	mov	r3, #0
	str	r3, [sp, #856]
	.loc 2 1359 0
	mov	r0, r0	@ nop
.L165:
	.loc 2 1362 0
	ldr	r3, [sp, #856]
	str	r3, [sp, #392]
	.loc 2 1363 0
	ldr	r3, [sp, #392]
	str	r3, [sp, #388]
	.loc 2 1364 0
	mov	r3, #6
	str	r3, [sp, #384]
	.loc 2 1365 0
	ldr	r3, [sp, #388]
	cmp	r3, #0
	bge	.L166
	.loc 2 1366 0
	ldr	r3, [sp, #388]
	rsb	r3, r3, #0
	str	r3, [sp, #736]
	b	.L167
.L166:
	.loc 2 1368 0
	ldr	r3, [sp, #388]
	str	r3, [sp, #736]
.L167:
	.loc 2 1370 0
	ldr	r3, [sp, #736]
	str	r3, [sp, #732]
	.loc 2 1371 0
	ldr	r3, [sp, #384]
	str	r3, [sp, #728]
	.loc 2 1372 0
	ldr	r3, [sp, #388]
	mov	r3, r3, lsr #31
	and	r3, r3, #255
	str	r3, [sp, #380]
	.loc 2 1374 0
	mov	r3, #0
	str	r3, [sp, #724]
	.loc 2 1376 0
	ldr	r3, [sp, #728]
	cmp	r3, #10
	bls	.L169
	.loc 2 1377 0
	mov	r3, #11
	str	r3, [sp, #728]
	.loc 2 1379 0
	b	.L169
.L170:
	.loc 2 1380 0
	.syntax divided
@ 1380 "nxtway_gs.c" 1
	1:
        .section .wcet_annot
        .long 1b
        .long 1
        .long 5
                        .text
@ 0 "" 2
	.loc 2 1382 0
	.arm
	.syntax divided
	ldr	r3, [sp, #724]
	add	r3, r3, #1
	str	r3, [sp, #724]
	.loc 2 1384 0
	mov	r3, #1
	str	r3, [sp, #732]
.L169:
	.loc 2 1379 0
	ldr	r3, [sp, #732]
	cmp	r3, #0
	bne	.L170
	.loc 2 1386 0
	ldr	r3, [sp, #724]
	cmp	r3, #0
	bne	.L171
	.loc 2 1388 0
	ldr	r3, [sp, #724]
	add	r3, r3, #1
	str	r3, [sp, #724]
.L171:
	.loc 2 1391 0
	ldr	r3, [sp, #380]
	cmp	r3, #0
	beq	.L173
	.loc 2 1393 0
	ldr	r3, [sp, #724]
	add	r3, r3, #1
	str	r3, [sp, #724]
	.loc 2 1396 0
	b	.L173
.L174:
	.loc 2 1397 0
	.syntax divided
@ 1397 "nxtway_gs.c" 1
	1:
        .section .wcet_annot
        .long 1b
        .long 1
        .long 8
                        .text
@ 0 "" 2
	.loc 2 1399 0
	.arm
	.syntax divided
	ldr	r3, [sp, #724]
	add	r3, r3, #1
	str	r3, [sp, #724]
.L173:
	.loc 2 1396 0
	ldr	r2, [sp, #724]
	ldr	r3, [sp, #728]
	cmp	r2, r3
	bcc	.L174
	.loc 2 1402 0
	mov	r3, #5
	str	r3, [sp, #660]
	.loc 2 1403 0
	b	.L175
.L182:
	.loc 2 1404 0
	.syntax divided
@ 1404 "nxtway_gs.c" 1
	1:
        .section .wcet_annot
        .long 1b
        .long 1
        .long 5
                        .text
@ 0 "" 2
	.loc 2 1405 0
	.arm
	.syntax divided
	ldr	r3, [sp, #660]
	cmp	r3, #10
	beq	.L176
	.loc 2 1406 0
	mov	r3, #1
	str	r3, [sp, #376]
	.loc 2 1407 0
	ldr	r3, [sp, #376]
	cmp	r3, #0
	blt	.L395
	.loc 2 1408 0
	ldr	r3, [sp, #376]
	cmp	r3, #127
	bgt	.L395
	.loc 2 1409 0
	ldr	r3, .L408+8
	ldr	r3, [r3]
	cmp	r3, #0
	blt	.L395
	.loc 2 1410 0
	ldr	r3, .L408+8
	ldr	r3, [r3]
	cmp	r3, #15
	bgt	.L395
	.loc 2 1411 0
	ldr	r3, .L408+12
	ldr	r3, [r3]
	cmp	r3, #0
	blt	.L395
	.loc 2 1412 0
	ldr	r3, .L408+12
	ldr	r3, [r3]
	cmp	r3, #7
	bgt	.L395
	.loc 2 1415 0
	mov	r3, #0
	str	r3, [sp, #580]
	.loc 2 1416 0
	b	.L178
.L179:
	.loc 2 1417 0
	.syntax divided
@ 1417 "nxtway_gs.c" 1
	1:
        .section .wcet_annot
        .long 1b
        .long 1
        .long 5
                        .text
@ 0 "" 2
	.loc 2 1421 0
	.arm
	.syntax divided
	ldr	r3, [sp, #580]
	add	r3, r3, #1
	str	r3, [sp, #580]
.L178:
	.loc 2 1416 0
	ldr	r3, [sp, #580]
	cmp	r3, #4
	ble	.L179
.L395:
	.loc 2 1429 0
	mov	r0, r0	@ nop
.L180:
	.loc 2 1431 0
	ldr	r3, .L408+8
	ldr	r3, [r3]
	add	r3, r3, #1
	ldr	r2, .L408+8
	str	r3, [r2]
	b	.L181
.L176:
	.loc 2 1433 0
	ldr	r3, .L408+8
	mov	r2, #0
	str	r2, [r3]
	.loc 2 1434 0
	ldr	r3, .L408+12
	ldr	r3, [r3]
	add	r3, r3, #1
	ldr	r2, .L408+12
	str	r3, [r2]
.L181:
	.loc 2 1436 0
	ldr	r3, [sp, #660]
	add	r3, r3, #1
	str	r3, [sp, #660]
.L175:
	.loc 2 1403 0
	ldr	r3, [sp, #660]
	cmp	r3, #0
	bne	.L182
	.loc 2 1438 0
	mov	r0, r0	@ nop
	.loc 2 1440 0
	mov	r0, r0	@ nop
	.loc 2 1442 0
	mov	r0, r0	@ nop
.L183:
.L184:
.L185:
	.loc 2 1444 0
	mov	r3, #0
	str	r3, [sp, #372]
	.loc 2 1445 0
	mov	r3, #4
	str	r3, [sp, #368]
	.loc 2 1446 0
	ldr	r2, .L408+8
	ldr	r3, [sp, #372]
	str	r3, [r2]
	.loc 2 1447 0
	ldr	r2, .L408+12
	ldr	r3, [sp, #368]
	str	r3, [r2]
	.loc 2 1448 0
	mov	r0, r0	@ nop
.L186:
	.loc 2 1450 0
	mov	r3, #4
	str	r3, [sp, #656]
	.loc 2 1451 0
	b	.L187
.L194:
	.loc 2 1452 0
	.syntax divided
@ 1452 "nxtway_gs.c" 1
	1:
        .section .wcet_annot
        .long 1b
        .long 1
        .long 4
                        .text
@ 0 "" 2
	.loc 2 1453 0
	.arm
	.syntax divided
	ldr	r3, [sp, #656]
	cmp	r3, #10
	beq	.L188
	.loc 2 1454 0
	mov	r3, #1
	str	r3, [sp, #364]
	.loc 2 1455 0
	ldr	r3, [sp, #364]
	cmp	r3, #0
	blt	.L396
	.loc 2 1456 0
	ldr	r3, [sp, #364]
	cmp	r3, #127
	bgt	.L396
	.loc 2 1457 0
	ldr	r3, .L408+8
	ldr	r3, [r3]
	cmp	r3, #0
	blt	.L396
	.loc 2 1458 0
	ldr	r3, .L408+8
	ldr	r3, [r3]
	cmp	r3, #15
	bgt	.L396
	.loc 2 1459 0
	ldr	r3, .L408+12
	ldr	r3, [r3]
	cmp	r3, #0
	blt	.L396
	.loc 2 1460 0
	ldr	r3, .L408+12
	ldr	r3, [r3]
	cmp	r3, #7
	bgt	.L396
	.loc 2 1463 0
	mov	r3, #0
	str	r3, [sp, #576]
	.loc 2 1464 0
	b	.L190
.L191:
	.loc 2 1465 0
	.syntax divided
@ 1465 "nxtway_gs.c" 1
	1:
        .section .wcet_annot
        .long 1b
        .long 1
        .long 5
                        .text
@ 0 "" 2
	.loc 2 1469 0
	.arm
	.syntax divided
	ldr	r3, [sp, #576]
	add	r3, r3, #1
	str	r3, [sp, #576]
.L190:
	.loc 2 1464 0
	ldr	r3, [sp, #576]
	cmp	r3, #4
	ble	.L191
.L396:
	.loc 2 1477 0
	mov	r0, r0	@ nop
.L192:
	.loc 2 1479 0
	ldr	r3, .L408+8
	ldr	r3, [r3]
	add	r3, r3, #1
	ldr	r2, .L408+8
	str	r3, [r2]
	b	.L193
.L188:
	.loc 2 1481 0
	ldr	r3, .L408+8
	mov	r2, #0
	str	r2, [r3]
	.loc 2 1482 0
	ldr	r3, .L408+12
	ldr	r3, [r3]
	add	r3, r3, #1
	ldr	r2, .L408+12
	str	r3, [r2]
.L193:
	.loc 2 1484 0
	ldr	r3, [sp, #656]
	add	r3, r3, #1
	str	r3, [sp, #656]
.L187:
	.loc 2 1451 0
	ldr	r3, [sp, #656]
	cmp	r3, #0
	bne	.L194
	.loc 2 1486 0
	mov	r0, r0	@ nop
.L195:
	.loc 2 1488 0
	mov	r3, #2
	str	r3, [sp, #360]
	.loc 2 1489 0
	ldr	r3, [sp, #360]
	cmp	r3, #2
	bhi	.L196
	.loc 2 1490 0
	ldr	r2, .L408+4
	ldr	r3, [sp, #360]
	ldr	r3, [r2, r3, asl #4]
	str	r3, [sp, #852]
	.loc 2 1491 0
	b	.L197
.L409:
	.align	2
.L408:
	.word	display_tick
	.word	motor
	.word	display_x
	.word	display_y
	.word	bt_status
.L196:
	.loc 2 1493 0
	mov	r3, #0
	str	r3, [sp, #852]
	.loc 2 1494 0
	mov	r0, r0	@ nop
.L197:
	.loc 2 1497 0
	ldr	r3, [sp, #852]
	str	r3, [sp, #356]
	.loc 2 1498 0
	ldr	r3, [sp, #356]
	str	r3, [sp, #352]
	.loc 2 1499 0
	mov	r3, #0
	str	r3, [sp, #348]
	.loc 2 1500 0
	ldr	r3, [sp, #352]
	cmp	r3, #0
	bge	.L198
	.loc 2 1501 0
	ldr	r3, [sp, #352]
	rsb	r3, r3, #0
	str	r3, [sp, #720]
	b	.L199
.L198:
	.loc 2 1503 0
	ldr	r3, [sp, #352]
	str	r3, [sp, #720]
.L199:
	.loc 2 1505 0
	ldr	r3, [sp, #720]
	str	r3, [sp, #716]
	.loc 2 1506 0
	ldr	r3, [sp, #348]
	str	r3, [sp, #712]
	.loc 2 1507 0
	ldr	r3, [sp, #352]
	mov	r3, r3, lsr #31
	and	r3, r3, #255
	str	r3, [sp, #344]
	.loc 2 1509 0
	mov	r3, #0
	str	r3, [sp, #708]
	.loc 2 1511 0
	ldr	r3, [sp, #712]
	cmp	r3, #10
	bls	.L201
	.loc 2 1512 0
	mov	r3, #11
	str	r3, [sp, #712]
	.loc 2 1514 0
	b	.L201
.L202:
	.loc 2 1515 0
	.syntax divided
@ 1515 "nxtway_gs.c" 1
	1:
        .section .wcet_annot
        .long 1b
        .long 1
        .long 8
                        .text
@ 0 "" 2
	.loc 2 1517 0
	.arm
	.syntax divided
	ldr	r3, [sp, #708]
	add	r3, r3, #1
	str	r3, [sp, #708]
	.loc 2 1519 0
	mov	r3, #1
	str	r3, [sp, #716]
.L201:
	.loc 2 1514 0
	ldr	r3, [sp, #716]
	cmp	r3, #0
	bne	.L202
	.loc 2 1521 0
	ldr	r3, [sp, #708]
	cmp	r3, #0
	bne	.L203
	.loc 2 1523 0
	ldr	r3, [sp, #708]
	add	r3, r3, #1
	str	r3, [sp, #708]
.L203:
	.loc 2 1526 0
	ldr	r3, [sp, #344]
	cmp	r3, #0
	beq	.L205
	.loc 2 1528 0
	ldr	r3, [sp, #708]
	add	r3, r3, #1
	str	r3, [sp, #708]
	.loc 2 1531 0
	b	.L205
.L206:
	.loc 2 1532 0
	.syntax divided
@ 1532 "nxtway_gs.c" 1
	1:
        .section .wcet_annot
        .long 1b
        .long 1
        .long 5
                        .text
@ 0 "" 2
	.loc 2 1534 0
	.arm
	.syntax divided
	ldr	r3, [sp, #708]
	add	r3, r3, #1
	str	r3, [sp, #708]
.L205:
	.loc 2 1531 0
	ldr	r2, [sp, #708]
	ldr	r3, [sp, #712]
	cmp	r2, r3
	bcc	.L206
	.loc 2 1537 0
	mov	r3, #5
	str	r3, [sp, #652]
	.loc 2 1538 0
	b	.L207
.L214:
	.loc 2 1539 0
	.syntax divided
@ 1539 "nxtway_gs.c" 1
	1:
        .section .wcet_annot
        .long 1b
        .long 1
        .long 5
                        .text
@ 0 "" 2
	.loc 2 1540 0
	.arm
	.syntax divided
	ldr	r3, [sp, #652]
	cmp	r3, #10
	beq	.L208
	.loc 2 1541 0
	mov	r3, #1
	str	r3, [sp, #340]
	.loc 2 1542 0
	ldr	r3, [sp, #340]
	cmp	r3, #0
	blt	.L397
	.loc 2 1543 0
	ldr	r3, [sp, #340]
	cmp	r3, #127
	bgt	.L397
	.loc 2 1544 0
	ldr	r3, .L408+8
	ldr	r3, [r3]
	cmp	r3, #0
	blt	.L397
	.loc 2 1545 0
	ldr	r3, .L408+8
	ldr	r3, [r3]
	cmp	r3, #15
	bgt	.L397
	.loc 2 1546 0
	ldr	r3, .L408+12
	ldr	r3, [r3]
	cmp	r3, #0
	blt	.L397
	.loc 2 1547 0
	ldr	r3, .L408+12
	ldr	r3, [r3]
	cmp	r3, #7
	bgt	.L397
	.loc 2 1550 0
	mov	r3, #0
	str	r3, [sp, #572]
	.loc 2 1551 0
	b	.L210
.L211:
	.loc 2 1552 0
	.syntax divided
@ 1552 "nxtway_gs.c" 1
	1:
        .section .wcet_annot
        .long 1b
        .long 1
        .long 5
                        .text
@ 0 "" 2
	.loc 2 1556 0
	.arm
	.syntax divided
	ldr	r3, [sp, #572]
	add	r3, r3, #1
	str	r3, [sp, #572]
.L210:
	.loc 2 1551 0
	ldr	r3, [sp, #572]
	cmp	r3, #4
	ble	.L211
.L397:
	.loc 2 1564 0
	mov	r0, r0	@ nop
.L212:
	.loc 2 1566 0
	ldr	r3, .L408+8
	ldr	r3, [r3]
	add	r3, r3, #1
	ldr	r2, .L408+8
	str	r3, [r2]
	b	.L213
.L208:
	.loc 2 1568 0
	ldr	r3, .L408+8
	mov	r2, #0
	str	r2, [r3]
	.loc 2 1569 0
	ldr	r3, .L408+12
	ldr	r3, [r3]
	add	r3, r3, #1
	ldr	r2, .L408+12
	str	r3, [r2]
.L213:
	.loc 2 1571 0
	ldr	r3, [sp, #652]
	add	r3, r3, #1
	str	r3, [sp, #652]
.L207:
	.loc 2 1538 0
	ldr	r3, [sp, #652]
	cmp	r3, #0
	bne	.L214
	.loc 2 1573 0
	mov	r0, r0	@ nop
	.loc 2 1575 0
	mov	r0, r0	@ nop
	.loc 2 1577 0
	mov	r0, r0	@ nop
.L215:
.L216:
.L217:
	.loc 2 1579 0
	mov	r3, #0
	str	r3, [sp, #336]
	.loc 2 1580 0
	mov	r3, #5
	str	r3, [sp, #332]
	.loc 2 1581 0
	ldr	r2, .L408+8
	ldr	r3, [sp, #336]
	str	r3, [r2]
	.loc 2 1582 0
	ldr	r2, .L408+12
	ldr	r3, [sp, #332]
	str	r3, [r2]
	.loc 2 1583 0
	mov	r0, r0	@ nop
.L218:
	.loc 2 1585 0
	mov	r3, #3
	str	r3, [sp, #648]
	.loc 2 1586 0
	b	.L219
.L226:
	.loc 2 1587 0
	.syntax divided
@ 1587 "nxtway_gs.c" 1
	1:
        .section .wcet_annot
        .long 1b
        .long 1
        .long 3
                        .text
@ 0 "" 2
	.loc 2 1588 0
	.arm
	.syntax divided
	ldr	r3, [sp, #648]
	cmp	r3, #10
	beq	.L220
	.loc 2 1589 0
	mov	r3, #1
	str	r3, [sp, #328]
	.loc 2 1590 0
	ldr	r3, [sp, #328]
	cmp	r3, #0
	blt	.L398
	.loc 2 1591 0
	ldr	r3, [sp, #328]
	cmp	r3, #127
	bgt	.L398
	.loc 2 1592 0
	ldr	r3, .L408+8
	ldr	r3, [r3]
	cmp	r3, #0
	blt	.L398
	.loc 2 1593 0
	ldr	r3, .L408+8
	ldr	r3, [r3]
	cmp	r3, #15
	bgt	.L398
	.loc 2 1594 0
	ldr	r3, .L408+12
	ldr	r3, [r3]
	cmp	r3, #0
	blt	.L398
	.loc 2 1595 0
	ldr	r3, .L408+12
	ldr	r3, [r3]
	cmp	r3, #7
	bgt	.L398
	.loc 2 1598 0
	mov	r3, #0
	str	r3, [sp, #568]
	.loc 2 1599 0
	b	.L222
.L223:
	.loc 2 1600 0
	.syntax divided
@ 1600 "nxtway_gs.c" 1
	1:
        .section .wcet_annot
        .long 1b
        .long 1
        .long 5
                        .text
@ 0 "" 2
	.loc 2 1604 0
	.arm
	.syntax divided
	ldr	r3, [sp, #568]
	add	r3, r3, #1
	str	r3, [sp, #568]
.L222:
	.loc 2 1599 0
	ldr	r3, [sp, #568]
	cmp	r3, #4
	ble	.L223
.L398:
	.loc 2 1612 0
	mov	r0, r0	@ nop
.L224:
	.loc 2 1614 0
	ldr	r3, .L408+8
	ldr	r3, [r3]
	add	r3, r3, #1
	ldr	r2, .L408+8
	str	r3, [r2]
	b	.L225
.L220:
	.loc 2 1616 0
	ldr	r3, .L408+8
	mov	r2, #0
	str	r2, [r3]
	.loc 2 1617 0
	ldr	r3, .L408+12
	ldr	r3, [r3]
	add	r3, r3, #1
	ldr	r2, .L408+12
	str	r3, [r2]
.L225:
	.loc 2 1619 0
	ldr	r3, [sp, #648]
	add	r3, r3, #1
	str	r3, [sp, #648]
.L219:
	.loc 2 1586 0
	ldr	r3, [sp, #648]
	cmp	r3, #0
	bne	.L226
	.loc 2 1621 0
	mov	r0, r0	@ nop
.L227:
	.loc 2 1624 0
	mov	r3, #0
	str	r3, [sp, #324]
	.loc 2 1626 0
	ldr	r3, [sp, #324]
	cmp	r3, #9
	bhi	.L228
	.loc 2 1628 0
	mov	r3, #1
	str	r3, [sp, #528]
	.loc 2 1629 0
	b	.L229
.L228:
	.loc 2 1633 0
	mov	r3, #0
	str	r3, [sp, #528]
	.loc 2 1634 0
	mov	r0, r0	@ nop
.L229:
	.loc 2 1639 0
	ldr	r3, [sp, #528]
	str	r3, [sp, #320]
	.loc 2 1640 0
	ldr	r3, [sp, #320]
	str	r3, [sp, #316]
	.loc 2 1641 0
	mov	r3, #0
	str	r3, [sp, #312]
	.loc 2 1642 0
	ldr	r3, [sp, #316]
	str	r3, [sp, #824]
	.loc 2 1643 0
	ldr	r3, [sp, #312]
	str	r3, [sp, #820]
	.loc 2 1644 0
	mov	r3, #0
	str	r3, [sp, #308]
	.loc 2 1646 0
	mov	r3, #0
	str	r3, [sp, #816]
	.loc 2 1649 0
	ldr	r3, [sp, #820]
	cmp	r3, #10
	bls	.L231
	.loc 2 1650 0
	mov	r3, #11
	str	r3, [sp, #820]
	.loc 2 1652 0
	b	.L231
.L232:
	.loc 2 1653 0
	.syntax divided
@ 1653 "nxtway_gs.c" 1
	1:
        .section .wcet_annot
        .long 1b
        .long 1
        .long 5
                        .text
@ 0 "" 2
	.loc 2 1655 0
	.arm
	.syntax divided
	ldr	r3, [sp, #816]
	add	r3, r3, #1
	str	r3, [sp, #816]
	.loc 2 1657 0
	mov	r3, #1
	str	r3, [sp, #824]
.L231:
	.loc 2 1652 0
	ldr	r3, [sp, #824]
	cmp	r3, #0
	bne	.L232
	.loc 2 1659 0
	ldr	r3, [sp, #816]
	cmp	r3, #0
	bne	.L233
	.loc 2 1661 0
	ldr	r3, [sp, #816]
	add	r3, r3, #1
	str	r3, [sp, #816]
.L233:
	.loc 2 1664 0
	ldr	r3, [sp, #308]
	cmp	r3, #0
	beq	.L235
	.loc 2 1666 0
	ldr	r3, [sp, #816]
	add	r3, r3, #1
	str	r3, [sp, #816]
	.loc 2 1669 0
	b	.L235
.L236:
	.loc 2 1670 0
	.syntax divided
@ 1670 "nxtway_gs.c" 1
	1:
        .section .wcet_annot
        .long 1b
        .long 1
        .long 5
                        .text
@ 0 "" 2
	.loc 2 1672 0
	.arm
	.syntax divided
	ldr	r3, [sp, #816]
	add	r3, r3, #1
	str	r3, [sp, #816]
.L235:
	.loc 2 1669 0
	ldr	r2, [sp, #816]
	ldr	r3, [sp, #820]
	cmp	r2, r3
	bcc	.L236
	.loc 2 1675 0
	mov	r3, #5
	str	r3, [sp, #644]
	.loc 2 1676 0
	b	.L237
.L244:
	.loc 2 1677 0
	.syntax divided
@ 1677 "nxtway_gs.c" 1
	1:
        .section .wcet_annot
        .long 1b
        .long 1
        .long 5
                        .text
@ 0 "" 2
	.loc 2 1678 0
	.arm
	.syntax divided
	ldr	r3, [sp, #644]
	cmp	r3, #10
	beq	.L238
	.loc 2 1679 0
	mov	r3, #1
	str	r3, [sp, #304]
	.loc 2 1680 0
	ldr	r3, [sp, #304]
	cmp	r3, #0
	blt	.L399
	.loc 2 1681 0
	ldr	r3, [sp, #304]
	cmp	r3, #127
	bgt	.L399
	.loc 2 1682 0
	ldr	r3, .L408+8
	ldr	r3, [r3]
	cmp	r3, #0
	blt	.L399
	.loc 2 1683 0
	ldr	r3, .L408+8
	ldr	r3, [r3]
	cmp	r3, #15
	bgt	.L399
	.loc 2 1684 0
	ldr	r3, .L408+12
	ldr	r3, [r3]
	cmp	r3, #0
	blt	.L399
	.loc 2 1685 0
	ldr	r3, .L408+12
	ldr	r3, [r3]
	cmp	r3, #7
	bgt	.L399
	.loc 2 1688 0
	mov	r3, #0
	str	r3, [sp, #564]
	.loc 2 1689 0
	b	.L240
.L241:
	.loc 2 1690 0
	.syntax divided
@ 1690 "nxtway_gs.c" 1
	1:
        .section .wcet_annot
        .long 1b
        .long 1
        .long 5
                        .text
@ 0 "" 2
	.loc 2 1694 0
	.arm
	.syntax divided
	ldr	r3, [sp, #564]
	add	r3, r3, #1
	str	r3, [sp, #564]
.L240:
	.loc 2 1689 0
	ldr	r3, [sp, #564]
	cmp	r3, #4
	ble	.L241
.L399:
	.loc 2 1702 0
	mov	r0, r0	@ nop
.L242:
	.loc 2 1704 0
	ldr	r3, .L408+8
	ldr	r3, [r3]
	add	r3, r3, #1
	ldr	r2, .L408+8
	str	r3, [r2]
	b	.L243
.L238:
	.loc 2 1706 0
	ldr	r3, .L408+8
	mov	r2, #0
	str	r2, [r3]
	.loc 2 1707 0
	ldr	r3, .L408+12
	ldr	r3, [r3]
	add	r3, r3, #1
	ldr	r2, .L408+12
	str	r3, [r2]
.L243:
	.loc 2 1709 0
	ldr	r3, [sp, #644]
	add	r3, r3, #1
	str	r3, [sp, #644]
.L237:
	.loc 2 1676 0
	ldr	r3, [sp, #644]
	cmp	r3, #0
	bne	.L244
	.loc 2 1711 0
	mov	r0, r0	@ nop
	.loc 2 1713 0
	mov	r0, r0	@ nop
	.loc 2 1715 0
	mov	r0, r0	@ nop
.L245:
.L246:
.L247:
	.loc 2 1718 0
	mov	r3, #1
	str	r3, [sp, #300]
	.loc 2 1720 0
	ldr	r3, [sp, #300]
	cmp	r3, #9
	bhi	.L248
	.loc 2 1722 0
	mov	r3, #1
	str	r3, [sp, #524]
	.loc 2 1723 0
	b	.L249
.L248:
	.loc 2 1727 0
	mov	r3, #0
	str	r3, [sp, #524]
	.loc 2 1728 0
	mov	r0, r0	@ nop
.L249:
	.loc 2 1733 0
	ldr	r3, [sp, #524]
	str	r3, [sp, #296]
	.loc 2 1734 0
	ldr	r3, [sp, #296]
	str	r3, [sp, #292]
	.loc 2 1735 0
	mov	r3, #5
	str	r3, [sp, #288]
	.loc 2 1736 0
	ldr	r3, [sp, #292]
	str	r3, [sp, #812]
	.loc 2 1737 0
	ldr	r3, [sp, #288]
	str	r3, [sp, #808]
	.loc 2 1738 0
	mov	r3, #0
	str	r3, [sp, #284]
	.loc 2 1740 0
	mov	r3, #0
	str	r3, [sp, #804]
	.loc 2 1743 0
	ldr	r3, [sp, #808]
	cmp	r3, #10
	bls	.L251
	.loc 2 1744 0
	mov	r3, #11
	str	r3, [sp, #808]
	.loc 2 1746 0
	b	.L251
.L252:
	.loc 2 1747 0
	.syntax divided
@ 1747 "nxtway_gs.c" 1
	1:
        .section .wcet_annot
        .long 1b
        .long 1
        .long 5
                        .text
@ 0 "" 2
	.loc 2 1749 0
	.arm
	.syntax divided
	ldr	r3, [sp, #804]
	add	r3, r3, #1
	str	r3, [sp, #804]
	.loc 2 1751 0
	mov	r3, #1
	str	r3, [sp, #812]
.L251:
	.loc 2 1746 0
	ldr	r3, [sp, #812]
	cmp	r3, #0
	bne	.L252
	.loc 2 1753 0
	ldr	r3, [sp, #804]
	cmp	r3, #0
	bne	.L253
	.loc 2 1755 0
	ldr	r3, [sp, #804]
	add	r3, r3, #1
	str	r3, [sp, #804]
.L253:
	.loc 2 1758 0
	ldr	r3, [sp, #284]
	cmp	r3, #0
	beq	.L255
	.loc 2 1760 0
	ldr	r3, [sp, #804]
	add	r3, r3, #1
	str	r3, [sp, #804]
	.loc 2 1763 0
	b	.L255
.L256:
	.loc 2 1764 0
	.syntax divided
@ 1764 "nxtway_gs.c" 1
	1:
        .section .wcet_annot
        .long 1b
        .long 1
        .long 5
                        .text
@ 0 "" 2
	.loc 2 1766 0
	.arm
	.syntax divided
	ldr	r3, [sp, #804]
	add	r3, r3, #1
	str	r3, [sp, #804]
.L255:
	.loc 2 1763 0
	ldr	r2, [sp, #804]
	ldr	r3, [sp, #808]
	cmp	r2, r3
	bcc	.L256
	.loc 2 1769 0
	mov	r3, #4
	str	r3, [sp, #640]
	.loc 2 1770 0
	b	.L257
.L264:
	.loc 2 1771 0
	.syntax divided
@ 1771 "nxtway_gs.c" 1
	1:
        .section .wcet_annot
        .long 1b
        .long 1
        .long 4
                        .text
@ 0 "" 2
	.loc 2 1772 0
	.arm
	.syntax divided
	ldr	r3, [sp, #640]
	cmp	r3, #10
	beq	.L258
	.loc 2 1773 0
	mov	r3, #1
	str	r3, [sp, #280]
	.loc 2 1774 0
	ldr	r3, [sp, #280]
	cmp	r3, #0
	blt	.L400
	.loc 2 1775 0
	ldr	r3, [sp, #280]
	cmp	r3, #127
	bgt	.L400
	.loc 2 1776 0
	ldr	r3, .L408+8
	ldr	r3, [r3]
	cmp	r3, #0
	blt	.L400
	.loc 2 1777 0
	ldr	r3, .L408+8
	ldr	r3, [r3]
	cmp	r3, #15
	bgt	.L400
	.loc 2 1778 0
	ldr	r3, .L408+12
	ldr	r3, [r3]
	cmp	r3, #0
	blt	.L400
	.loc 2 1779 0
	ldr	r3, .L408+12
	ldr	r3, [r3]
	cmp	r3, #7
	bgt	.L400
	.loc 2 1782 0
	mov	r3, #0
	str	r3, [sp, #560]
	.loc 2 1783 0
	b	.L260
.L261:
	.loc 2 1784 0
	.syntax divided
@ 1784 "nxtway_gs.c" 1
	1:
        .section .wcet_annot
        .long 1b
        .long 1
        .long 5
                        .text
@ 0 "" 2
	.loc 2 1788 0
	.arm
	.syntax divided
	ldr	r3, [sp, #560]
	add	r3, r3, #1
	str	r3, [sp, #560]
.L260:
	.loc 2 1783 0
	ldr	r3, [sp, #560]
	cmp	r3, #4
	ble	.L261
.L400:
	.loc 2 1796 0
	mov	r0, r0	@ nop
.L262:
	.loc 2 1798 0
	ldr	r3, .L408+8
	ldr	r3, [r3]
	add	r3, r3, #1
	ldr	r2, .L408+8
	str	r3, [r2]
	b	.L263
.L258:
	.loc 2 1800 0
	ldr	r3, .L408+8
	mov	r2, #0
	str	r2, [r3]
	.loc 2 1801 0
	ldr	r3, .L408+12
	ldr	r3, [r3]
	add	r3, r3, #1
	ldr	r2, .L408+12
	str	r3, [r2]
.L263:
	.loc 2 1803 0
	ldr	r3, [sp, #640]
	add	r3, r3, #1
	str	r3, [sp, #640]
.L257:
	.loc 2 1770 0
	ldr	r3, [sp, #640]
	cmp	r3, #0
	bne	.L264
	.loc 2 1805 0
	mov	r0, r0	@ nop
	.loc 2 1807 0
	mov	r0, r0	@ nop
	.loc 2 1809 0
	mov	r0, r0	@ nop
.L265:
.L266:
.L267:
	.loc 2 1811 0
	mov	r3, #0
	str	r3, [sp, #276]
	.loc 2 1812 0
	mov	r3, #6
	str	r3, [sp, #272]
	.loc 2 1813 0
	ldr	r2, .L408+8
	ldr	r3, [sp, #276]
	str	r3, [r2]
	.loc 2 1814 0
	ldr	r2, .L408+12
	ldr	r3, [sp, #272]
	str	r3, [r2]
	.loc 2 1815 0
	mov	r0, r0	@ nop
.L268:
	.loc 2 1817 0
	mov	r3, #4
	str	r3, [sp, #636]
	.loc 2 1818 0
	b	.L269
.L276:
	.loc 2 1819 0
	.syntax divided
@ 1819 "nxtway_gs.c" 1
	1:
        .section .wcet_annot
        .long 1b
        .long 1
        .long 4
                        .text
@ 0 "" 2
	.loc 2 1820 0
	.arm
	.syntax divided
	ldr	r3, [sp, #636]
	cmp	r3, #10
	beq	.L270
	.loc 2 1821 0
	mov	r3, #1
	str	r3, [sp, #268]
	.loc 2 1822 0
	ldr	r3, [sp, #268]
	cmp	r3, #0
	blt	.L401
	.loc 2 1823 0
	ldr	r3, [sp, #268]
	cmp	r3, #127
	bgt	.L401
	.loc 2 1824 0
	ldr	r3, .L408+8
	ldr	r3, [r3]
	cmp	r3, #0
	blt	.L401
	.loc 2 1825 0
	ldr	r3, .L408+8
	ldr	r3, [r3]
	cmp	r3, #15
	bgt	.L401
	.loc 2 1826 0
	ldr	r3, .L408+12
	ldr	r3, [r3]
	cmp	r3, #0
	blt	.L401
	.loc 2 1827 0
	ldr	r3, .L408+12
	ldr	r3, [r3]
	cmp	r3, #7
	bgt	.L401
	.loc 2 1830 0
	mov	r3, #0
	str	r3, [sp, #556]
	.loc 2 1831 0
	b	.L272
.L273:
	.loc 2 1832 0
	.syntax divided
@ 1832 "nxtway_gs.c" 1
	1:
        .section .wcet_annot
        .long 1b
        .long 1
        .long 5
                        .text
@ 0 "" 2
	.loc 2 1836 0
	.arm
	.syntax divided
	ldr	r3, [sp, #556]
	add	r3, r3, #1
	str	r3, [sp, #556]
.L272:
	.loc 2 1831 0
	ldr	r3, [sp, #556]
	cmp	r3, #4
	ble	.L273
.L401:
	.loc 2 1844 0
	mov	r0, r0	@ nop
.L274:
	.loc 2 1846 0
	ldr	r3, .L408+8
	ldr	r3, [r3]
	add	r3, r3, #1
	ldr	r2, .L408+8
	str	r3, [r2]
	b	.L275
.L270:
	.loc 2 1848 0
	ldr	r3, .L408+8
	mov	r2, #0
	str	r2, [r3]
	.loc 2 1849 0
	ldr	r3, .L408+12
	ldr	r3, [r3]
	add	r3, r3, #1
	ldr	r2, .L408+12
	str	r3, [r2]
.L275:
	.loc 2 1851 0
	ldr	r3, [sp, #636]
	add	r3, r3, #1
	str	r3, [sp, #636]
.L269:
	.loc 2 1818 0
	ldr	r3, [sp, #636]
	cmp	r3, #0
	bne	.L276
	.loc 2 1853 0
	mov	r0, r0	@ nop
.L277:
	.loc 2 1856 0
	mov	r3, #2
	str	r3, [sp, #264]
	.loc 2 1858 0
	ldr	r3, [sp, #264]
	cmp	r3, #9
	bhi	.L278
	.loc 2 1860 0
	mov	r3, #1
	str	r3, [sp, #520]
	.loc 2 1861 0
	b	.L279
.L278:
	.loc 2 1865 0
	mov	r3, #0
	str	r3, [sp, #520]
	.loc 2 1866 0
	mov	r0, r0	@ nop
.L279:
	.loc 2 1871 0
	ldr	r3, [sp, #520]
	str	r3, [sp, #260]
	.loc 2 1872 0
	ldr	r3, [sp, #260]
	str	r3, [sp, #256]
	.loc 2 1873 0
	mov	r3, #0
	str	r3, [sp, #252]
	.loc 2 1874 0
	ldr	r3, [sp, #256]
	str	r3, [sp, #800]
	.loc 2 1875 0
	ldr	r3, [sp, #252]
	str	r3, [sp, #796]
	.loc 2 1876 0
	mov	r3, #0
	str	r3, [sp, #248]
	.loc 2 1878 0
	mov	r3, #0
	str	r3, [sp, #792]
	.loc 2 1881 0
	ldr	r3, [sp, #796]
	cmp	r3, #10
	bls	.L281
	.loc 2 1882 0
	mov	r3, #11
	str	r3, [sp, #796]
	.loc 2 1884 0
	b	.L281
.L282:
	.loc 2 1885 0
	.syntax divided
@ 1885 "nxtway_gs.c" 1
	1:
        .section .wcet_annot
        .long 1b
        .long 1
        .long 5
                        .text
@ 0 "" 2
	.loc 2 1887 0
	.arm
	.syntax divided
	ldr	r3, [sp, #792]
	add	r3, r3, #1
	str	r3, [sp, #792]
	.loc 2 1889 0
	mov	r3, #1
	str	r3, [sp, #800]
.L281:
	.loc 2 1884 0
	ldr	r3, [sp, #800]
	cmp	r3, #0
	bne	.L282
	.loc 2 1891 0
	ldr	r3, [sp, #792]
	cmp	r3, #0
	bne	.L283
	.loc 2 1893 0
	ldr	r3, [sp, #792]
	add	r3, r3, #1
	str	r3, [sp, #792]
.L283:
	.loc 2 1896 0
	ldr	r3, [sp, #248]
	cmp	r3, #0
	beq	.L285
	.loc 2 1898 0
	ldr	r3, [sp, #792]
	add	r3, r3, #1
	str	r3, [sp, #792]
	.loc 2 1901 0
	b	.L285
.L286:
	.loc 2 1902 0
	.syntax divided
@ 1902 "nxtway_gs.c" 1
	1:
        .section .wcet_annot
        .long 1b
        .long 1
        .long 5
                        .text
@ 0 "" 2
	.loc 2 1904 0
	.arm
	.syntax divided
	ldr	r3, [sp, #792]
	add	r3, r3, #1
	str	r3, [sp, #792]
.L285:
	.loc 2 1901 0
	ldr	r2, [sp, #792]
	ldr	r3, [sp, #796]
	cmp	r2, r3
	bcc	.L286
	.loc 2 1907 0
	mov	r3, #5
	str	r3, [sp, #632]
	.loc 2 1908 0
	b	.L287
.L294:
	.loc 2 1909 0
	.syntax divided
@ 1909 "nxtway_gs.c" 1
	1:
        .section .wcet_annot
        .long 1b
        .long 1
        .long 5
                        .text
@ 0 "" 2
	.loc 2 1910 0
	.arm
	.syntax divided
	ldr	r3, [sp, #632]
	cmp	r3, #10
	beq	.L288
	.loc 2 1911 0
	mov	r3, #1
	str	r3, [sp, #244]
	.loc 2 1912 0
	ldr	r3, [sp, #244]
	cmp	r3, #0
	blt	.L402
	.loc 2 1913 0
	ldr	r3, [sp, #244]
	cmp	r3, #127
	bgt	.L402
	.loc 2 1914 0
	ldr	r3, .L408+8
	ldr	r3, [r3]
	cmp	r3, #0
	blt	.L402
	.loc 2 1915 0
	ldr	r3, .L408+8
	ldr	r3, [r3]
	cmp	r3, #15
	bgt	.L402
	.loc 2 1916 0
	ldr	r3, .L408+12
	ldr	r3, [r3]
	cmp	r3, #0
	blt	.L402
	.loc 2 1917 0
	ldr	r3, .L408+12
	ldr	r3, [r3]
	cmp	r3, #7
	bgt	.L402
	.loc 2 1920 0
	mov	r3, #0
	str	r3, [sp, #552]
	.loc 2 1921 0
	b	.L290
.L291:
	.loc 2 1922 0
	.syntax divided
@ 1922 "nxtway_gs.c" 1
	1:
        .section .wcet_annot
        .long 1b
        .long 1
        .long 5
                        .text
@ 0 "" 2
	.loc 2 1926 0
	.arm
	.syntax divided
	ldr	r3, [sp, #552]
	add	r3, r3, #1
	str	r3, [sp, #552]
.L290:
	.loc 2 1921 0
	ldr	r3, [sp, #552]
	cmp	r3, #4
	ble	.L291
.L402:
	.loc 2 1934 0
	mov	r0, r0	@ nop
.L292:
	.loc 2 1936 0
	ldr	r3, .L408+8
	ldr	r3, [r3]
	add	r3, r3, #1
	ldr	r2, .L408+8
	str	r3, [r2]
	b	.L293
.L288:
	.loc 2 1938 0
	ldr	r3, .L408+8
	mov	r2, #0
	str	r2, [r3]
	.loc 2 1939 0
	ldr	r3, .L408+12
	ldr	r3, [r3]
	add	r3, r3, #1
	ldr	r2, .L408+12
	str	r3, [r2]
.L293:
	.loc 2 1941 0
	ldr	r3, [sp, #632]
	add	r3, r3, #1
	str	r3, [sp, #632]
.L287:
	.loc 2 1908 0
	ldr	r3, [sp, #632]
	cmp	r3, #0
	bne	.L294
	.loc 2 1943 0
	mov	r0, r0	@ nop
	.loc 2 1945 0
	mov	r0, r0	@ nop
	.loc 2 1947 0
	mov	r0, r0	@ nop
.L295:
.L296:
.L297:
	.loc 2 1950 0
	mov	r3, #3
	str	r3, [sp, #240]
	.loc 2 1952 0
	ldr	r3, [sp, #240]
	cmp	r3, #9
	bhi	.L298
	.loc 2 1954 0
	mov	r3, #1
	str	r3, [sp, #516]
	.loc 2 1955 0
	b	.L299
.L298:
	.loc 2 1959 0
	mov	r3, #0
	str	r3, [sp, #516]
	.loc 2 1960 0
	mov	r0, r0	@ nop
.L299:
	.loc 2 1965 0
	ldr	r3, [sp, #516]
	str	r3, [sp, #236]
	.loc 2 1966 0
	ldr	r3, [sp, #236]
	str	r3, [sp, #232]
	.loc 2 1967 0
	mov	r3, #5
	str	r3, [sp, #228]
	.loc 2 1968 0
	ldr	r3, [sp, #232]
	str	r3, [sp, #788]
	.loc 2 1969 0
	ldr	r3, [sp, #228]
	str	r3, [sp, #784]
	.loc 2 1970 0
	mov	r3, #0
	str	r3, [sp, #224]
	.loc 2 1972 0
	mov	r3, #0
	str	r3, [sp, #780]
	.loc 2 1976 0
	ldr	r3, [sp, #784]
	cmp	r3, #10
	bls	.L301
	.loc 2 1977 0
	mov	r3, #11
	str	r3, [sp, #784]
	.loc 2 1979 0
	b	.L301
.L302:
	.loc 2 1980 0
	.syntax divided
@ 1980 "nxtway_gs.c" 1
	1:
        .section .wcet_annot
        .long 1b
        .long 1
        .long 5
                        .text
@ 0 "" 2
	.loc 2 1982 0
	.arm
	.syntax divided
	ldr	r3, [sp, #780]
	add	r3, r3, #1
	str	r3, [sp, #780]
	.loc 2 1984 0
	mov	r3, #1
	str	r3, [sp, #788]
.L301:
	.loc 2 1979 0
	ldr	r3, [sp, #788]
	cmp	r3, #0
	bne	.L302
	.loc 2 1986 0
	ldr	r3, [sp, #780]
	cmp	r3, #0
	bne	.L303
	.loc 2 1988 0
	ldr	r3, [sp, #780]
	add	r3, r3, #1
	str	r3, [sp, #780]
.L303:
	.loc 2 1991 0
	ldr	r3, [sp, #224]
	cmp	r3, #0
	beq	.L305
	.loc 2 1993 0
	ldr	r3, [sp, #780]
	add	r3, r3, #1
	str	r3, [sp, #780]
	.loc 2 1996 0
	b	.L305
.L306:
	.loc 2 1997 0
	.syntax divided
@ 1997 "nxtway_gs.c" 1
	1:
        .section .wcet_annot
        .long 1b
        .long 1
        .long 5
                        .text
@ 0 "" 2
	.loc 2 1999 0
	.arm
	.syntax divided
	ldr	r3, [sp, #780]
	add	r3, r3, #1
	str	r3, [sp, #780]
.L305:
	.loc 2 1996 0
	ldr	r2, [sp, #780]
	ldr	r3, [sp, #784]
	cmp	r2, r3
	bcc	.L306
	.loc 2 2002 0
	mov	r3, #5
	str	r3, [sp, #628]
	.loc 2 2003 0
	b	.L307
.L314:
	.loc 2 2004 0
	.syntax divided
@ 2004 "nxtway_gs.c" 1
	1:
        .section .wcet_annot
        .long 1b
        .long 1
        .long 5
                        .text
@ 0 "" 2
	.loc 2 2005 0
	.arm
	.syntax divided
	ldr	r3, [sp, #628]
	cmp	r3, #10
	beq	.L308
	.loc 2 2006 0
	mov	r3, #1
	str	r3, [sp, #220]
	.loc 2 2007 0
	ldr	r3, [sp, #220]
	cmp	r3, #0
	blt	.L403
	.loc 2 2008 0
	ldr	r3, [sp, #220]
	cmp	r3, #127
	bgt	.L403
	.loc 2 2009 0
	ldr	r3, .L408+8
	ldr	r3, [r3]
	cmp	r3, #0
	blt	.L403
	.loc 2 2010 0
	ldr	r3, .L408+8
	ldr	r3, [r3]
	cmp	r3, #15
	bgt	.L403
	.loc 2 2011 0
	ldr	r3, .L408+12
	ldr	r3, [r3]
	cmp	r3, #0
	blt	.L403
	.loc 2 2012 0
	ldr	r3, .L408+12
	ldr	r3, [r3]
	cmp	r3, #7
	bgt	.L403
	.loc 2 2015 0
	mov	r3, #0
	str	r3, [sp, #548]
	.loc 2 2016 0
	b	.L310
.L311:
	.loc 2 2017 0
	.syntax divided
@ 2017 "nxtway_gs.c" 1
	1:
        .section .wcet_annot
        .long 1b
        .long 1
        .long 5
                        .text
@ 0 "" 2
	.loc 2 2021 0
	.arm
	.syntax divided
	ldr	r3, [sp, #548]
	add	r3, r3, #1
	str	r3, [sp, #548]
.L310:
	.loc 2 2016 0
	ldr	r3, [sp, #548]
	cmp	r3, #4
	ble	.L311
.L403:
	.loc 2 2029 0
	mov	r0, r0	@ nop
.L312:
	.loc 2 2031 0
	ldr	r3, .L408+8
	ldr	r3, [r3]
	add	r3, r3, #1
	ldr	r2, .L408+8
	str	r3, [r2]
	b	.L313
.L308:
	.loc 2 2033 0
	ldr	r3, .L408+8
	mov	r2, #0
	str	r2, [r3]
	.loc 2 2034 0
	ldr	r3, .L408+12
	ldr	r3, [r3]
	add	r3, r3, #1
	ldr	r2, .L408+12
	str	r3, [r2]
.L313:
	.loc 2 2036 0
	ldr	r3, [sp, #628]
	add	r3, r3, #1
	str	r3, [sp, #628]
.L307:
	.loc 2 2003 0
	ldr	r3, [sp, #628]
	cmp	r3, #0
	bne	.L314
	.loc 2 2038 0
	mov	r0, r0	@ nop
	.loc 2 2040 0
	mov	r0, r0	@ nop
	.loc 2 2042 0
	mov	r0, r0	@ nop
.L315:
.L316:
.L317:
	.loc 2 2044 0
	mov	r3, #0
	str	r3, [sp, #216]
	.loc 2 2045 0
	mov	r3, #7
	str	r3, [sp, #212]
	.loc 2 2046 0
	ldr	r2, .L408+8
	ldr	r3, [sp, #216]
	str	r3, [r2]
	.loc 2 2047 0
	ldr	r2, .L408+12
	ldr	r3, [sp, #212]
	str	r3, [r2]
	.loc 2 2048 0
	mov	r0, r0	@ nop
.L318:
	.loc 2 2050 0
	mov	r3, #6
	str	r3, [sp, #624]
	.loc 2 2051 0
	b	.L319
.L326:
	.loc 2 2052 0
	.syntax divided
@ 2052 "nxtway_gs.c" 1
	1:
        .section .wcet_annot
        .long 1b
        .long 1
        .long 6
                        .text
@ 0 "" 2
	.loc 2 2053 0
	.arm
	.syntax divided
	ldr	r3, [sp, #624]
	cmp	r3, #10
	beq	.L320
	.loc 2 2054 0
	mov	r3, #1
	str	r3, [sp, #208]
	.loc 2 2055 0
	ldr	r3, [sp, #208]
	cmp	r3, #0
	blt	.L404
	.loc 2 2056 0
	ldr	r3, [sp, #208]
	cmp	r3, #127
	bgt	.L404
	.loc 2 2057 0
	ldr	r3, .L408+8
	ldr	r3, [r3]
	cmp	r3, #0
	blt	.L404
	.loc 2 2058 0
	ldr	r3, .L408+8
	ldr	r3, [r3]
	cmp	r3, #15
	bgt	.L404
	.loc 2 2059 0
	ldr	r3, .L408+12
	ldr	r3, [r3]
	cmp	r3, #0
	blt	.L404
	.loc 2 2060 0
	ldr	r3, .L408+12
	ldr	r3, [r3]
	cmp	r3, #7
	bgt	.L404
	.loc 2 2063 0
	mov	r3, #0
	str	r3, [sp, #544]
	.loc 2 2064 0
	b	.L322
.L323:
	.loc 2 2065 0
	.syntax divided
@ 2065 "nxtway_gs.c" 1
	1:
        .section .wcet_annot
        .long 1b
        .long 1
        .long 5
                        .text
@ 0 "" 2
	.loc 2 2069 0
	.arm
	.syntax divided
	ldr	r3, [sp, #544]
	add	r3, r3, #1
	str	r3, [sp, #544]
.L322:
	.loc 2 2064 0
	ldr	r3, [sp, #544]
	cmp	r3, #4
	ble	.L323
.L404:
	.loc 2 2077 0
	mov	r0, r0	@ nop
.L324:
	.loc 2 2079 0
	ldr	r3, .L408+8
	ldr	r3, [r3]
	add	r3, r3, #1
	ldr	r2, .L408+8
	str	r3, [r2]
	b	.L325
.L320:
	.loc 2 2081 0
	ldr	r3, .L408+8
	mov	r2, #0
	str	r2, [r3]
	.loc 2 2082 0
	ldr	r3, .L408+12
	ldr	r3, [r3]
	add	r3, r3, #1
	ldr	r2, .L408+12
	str	r3, [r2]
.L325:
	.loc 2 2084 0
	ldr	r3, [sp, #624]
	add	r3, r3, #1
	str	r3, [sp, #624]
.L319:
	.loc 2 2051 0
	ldr	r3, [sp, #624]
	cmp	r3, #0
	bne	.L326
	.loc 2 2086 0
	mov	r0, r0	@ nop
.L327:
	.loc 2 2088 0
	ldr	r3, .L408+16
	ldrb	r3, [r3]	@ zero_extendqisi2
	str	r3, [sp, #204]
	.loc 2 2089 0
	mov	r0, r0	@ nop
.L328:
	.loc 2 2091 0
	ldr	r3, [sp, #204]
	str	r3, [sp, #200]
	.loc 2 2092 0
	ldr	r3, [sp, #200]
	cmp	r3, #7
	bne	.L329
	.loc 2 2093 0
	mov	r3, #1
	str	r3, [sp, #196]
	.loc 2 2094 0
	mov	r3, #0
	str	r3, [sp, #192]
	.loc 2 2095 0
	ldr	r3, [sp, #196]
	str	r3, [sp, #776]
	.loc 2 2096 0
	ldr	r3, [sp, #192]
	str	r3, [sp, #772]
	.loc 2 2097 0
	mov	r3, #0
	str	r3, [sp, #188]
	.loc 2 2099 0
	mov	r3, #0
	str	r3, [sp, #768]
	.loc 2 2101 0
	ldr	r3, [sp, #772]
	cmp	r3, #10
	bls	.L331
	.loc 2 2102 0
	mov	r3, #11
	str	r3, [sp, #772]
	.loc 2 2104 0
	b	.L331
.L332:
	.loc 2 2105 0
	.syntax divided
@ 2105 "nxtway_gs.c" 1
	1:
        .section .wcet_annot
        .long 1b
        .long 1
        .long 5
                        .text
@ 0 "" 2
	.loc 2 2107 0
	.arm
	.syntax divided
	ldr	r3, [sp, #768]
	add	r3, r3, #1
	str	r3, [sp, #768]
	.loc 2 2109 0
	mov	r3, #1
	str	r3, [sp, #776]
.L331:
	.loc 2 2104 0
	ldr	r3, [sp, #776]
	cmp	r3, #0
	bne	.L332
	.loc 2 2111 0
	ldr	r3, [sp, #768]
	cmp	r3, #0
	bne	.L333
	.loc 2 2113 0
	ldr	r3, [sp, #768]
	add	r3, r3, #1
	str	r3, [sp, #768]
.L333:
	.loc 2 2116 0
	ldr	r3, [sp, #188]
	cmp	r3, #0
	beq	.L335
	.loc 2 2118 0
	ldr	r3, [sp, #768]
	add	r3, r3, #1
	str	r3, [sp, #768]
	.loc 2 2121 0
	b	.L335
.L336:
	.loc 2 2122 0
	.syntax divided
@ 2122 "nxtway_gs.c" 1
	1:
        .section .wcet_annot
        .long 1b
        .long 1
        .long 5
                        .text
@ 0 "" 2
	.loc 2 2124 0
	.arm
	.syntax divided
	ldr	r3, [sp, #768]
	add	r3, r3, #1
	str	r3, [sp, #768]
.L335:
	.loc 2 2121 0
	ldr	r2, [sp, #768]
	ldr	r3, [sp, #772]
	cmp	r2, r3
	bcc	.L336
	.loc 2 2127 0
	mov	r3, #5
	str	r3, [sp, #620]
	.loc 2 2128 0
	b	.L337
.L344:
	.loc 2 2129 0
	.syntax divided
@ 2129 "nxtway_gs.c" 1
	1:
        .section .wcet_annot
        .long 1b
        .long 1
        .long 5
                        .text
@ 0 "" 2
	.loc 2 2130 0
	.arm
	.syntax divided
	ldr	r3, [sp, #620]
	cmp	r3, #10
	beq	.L338
	.loc 2 2131 0
	mov	r3, #1
	str	r3, [sp, #184]
	.loc 2 2132 0
	ldr	r3, [sp, #184]
	cmp	r3, #0
	blt	.L405
	.loc 2 2133 0
	ldr	r3, [sp, #184]
	cmp	r3, #127
	bgt	.L405
	.loc 2 2134 0
	ldr	r3, .L410
	ldr	r3, [r3]
	cmp	r3, #0
	blt	.L405
	.loc 2 2135 0
	ldr	r3, .L410
	ldr	r3, [r3]
	cmp	r3, #15
	bgt	.L405
	.loc 2 2136 0
	ldr	r3, .L410+4
	ldr	r3, [r3]
	cmp	r3, #0
	blt	.L405
	.loc 2 2137 0
	ldr	r3, .L410+4
	ldr	r3, [r3]
	cmp	r3, #7
	bgt	.L405
	.loc 2 2140 0
	mov	r3, #0
	str	r3, [sp, #540]
	.loc 2 2141 0
	b	.L340
.L341:
	.loc 2 2142 0
	.syntax divided
@ 2142 "nxtway_gs.c" 1
	1:
        .section .wcet_annot
        .long 1b
        .long 1
        .long 5
                        .text
@ 0 "" 2
	.loc 2 2146 0
	.arm
	.syntax divided
	ldr	r3, [sp, #540]
	add	r3, r3, #1
	str	r3, [sp, #540]
.L340:
	.loc 2 2141 0
	ldr	r3, [sp, #540]
	cmp	r3, #4
	ble	.L341
.L405:
	.loc 2 2154 0
	mov	r0, r0	@ nop
.L342:
	.loc 2 2156 0
	ldr	r3, .L410
	ldr	r3, [r3]
	add	r3, r3, #1
	ldr	r2, .L410
	str	r3, [r2]
	b	.L343
.L338:
	.loc 2 2158 0
	ldr	r3, .L410
	mov	r2, #0
	str	r2, [r3]
	.loc 2 2159 0
	ldr	r3, .L410+4
	ldr	r3, [r3]
	add	r3, r3, #1
	ldr	r2, .L410+4
	str	r3, [r2]
.L343:
	.loc 2 2161 0
	ldr	r3, [sp, #620]
	add	r3, r3, #1
	str	r3, [sp, #620]
.L337:
	.loc 2 2128 0
	ldr	r3, [sp, #620]
	cmp	r3, #0
	bne	.L344
	.loc 2 2163 0
	mov	r0, r0	@ nop
	.loc 2 2165 0
	mov	r0, r0	@ nop
	.loc 2 2167 0
	mov	r0, r0	@ nop
.L345:
.L346:
.L347:
	b	.L348
.L329:
	.loc 2 2170 0
	mov	r3, #0
	str	r3, [sp, #180]
	.loc 2 2171 0
	mov	r3, #0
	str	r3, [sp, #176]
	.loc 2 2172 0
	ldr	r3, [sp, #180]
	str	r3, [sp, #764]
	.loc 2 2173 0
	ldr	r3, [sp, #176]
	str	r3, [sp, #760]
	.loc 2 2174 0
	mov	r3, #0
	str	r3, [sp, #172]
	.loc 2 2176 0
	mov	r3, #0
	str	r3, [sp, #756]
	.loc 2 2178 0
	ldr	r3, [sp, #760]
	cmp	r3, #10
	bls	.L350
	.loc 2 2179 0
	mov	r3, #11
	str	r3, [sp, #760]
	.loc 2 2181 0
	b	.L350
.L351:
	.loc 2 2182 0
	.syntax divided
@ 2182 "nxtway_gs.c" 1
	1:
        .section .wcet_annot
        .long 1b
        .long 1
        .long 5
                        .text
@ 0 "" 2
	.loc 2 2184 0
	.arm
	.syntax divided
	ldr	r3, [sp, #756]
	add	r3, r3, #1
	str	r3, [sp, #756]
	.loc 2 2186 0
	mov	r3, #1
	str	r3, [sp, #764]
.L350:
	.loc 2 2181 0
	ldr	r3, [sp, #764]
	cmp	r3, #0
	bne	.L351
	.loc 2 2188 0
	ldr	r3, [sp, #756]
	cmp	r3, #0
	bne	.L352
	.loc 2 2190 0
	ldr	r3, [sp, #756]
	add	r3, r3, #1
	str	r3, [sp, #756]
.L352:
	.loc 2 2193 0
	ldr	r3, [sp, #172]
	cmp	r3, #0
	beq	.L354
	.loc 2 2195 0
	ldr	r3, [sp, #756]
	add	r3, r3, #1
	str	r3, [sp, #756]
	.loc 2 2198 0
	b	.L354
.L355:
	.loc 2 2199 0
	.syntax divided
@ 2199 "nxtway_gs.c" 1
	1:
        .section .wcet_annot
        .long 1b
        .long 1
        .long 5
                        .text
@ 0 "" 2
	.loc 2 2201 0
	.arm
	.syntax divided
	ldr	r3, [sp, #756]
	add	r3, r3, #1
	str	r3, [sp, #756]
.L354:
	.loc 2 2198 0
	ldr	r2, [sp, #756]
	ldr	r3, [sp, #760]
	cmp	r2, r3
	bcc	.L355
	.loc 2 2204 0
	mov	r3, #5
	str	r3, [sp, #616]
	.loc 2 2205 0
	b	.L356
.L363:
	.loc 2 2206 0
	.syntax divided
@ 2206 "nxtway_gs.c" 1
	1:
        .section .wcet_annot
        .long 1b
        .long 1
        .long 5
                        .text
@ 0 "" 2
	.loc 2 2207 0
	.arm
	.syntax divided
	ldr	r3, [sp, #616]
	cmp	r3, #10
	beq	.L357
	.loc 2 2208 0
	mov	r3, #1
	str	r3, [sp, #168]
	.loc 2 2209 0
	ldr	r3, [sp, #168]
	cmp	r3, #0
	blt	.L406
	.loc 2 2210 0
	ldr	r3, [sp, #168]
	cmp	r3, #127
	bgt	.L406
	.loc 2 2211 0
	ldr	r3, .L410
	ldr	r3, [r3]
	cmp	r3, #0
	blt	.L406
	.loc 2 2212 0
	ldr	r3, .L410
	ldr	r3, [r3]
	cmp	r3, #15
	bgt	.L406
	.loc 2 2213 0
	ldr	r3, .L410+4
	ldr	r3, [r3]
	cmp	r3, #0
	blt	.L406
	.loc 2 2214 0
	ldr	r3, .L410+4
	ldr	r3, [r3]
	cmp	r3, #7
	bgt	.L406
	.loc 2 2217 0
	mov	r3, #0
	str	r3, [sp, #536]
	.loc 2 2218 0
	b	.L359
.L360:
	.loc 2 2219 0
	.syntax divided
@ 2219 "nxtway_gs.c" 1
	1:
        .section .wcet_annot
        .long 1b
        .long 1
        .long 5
                        .text
@ 0 "" 2
	.loc 2 2223 0
	.arm
	.syntax divided
	ldr	r3, [sp, #536]
	add	r3, r3, #1
	str	r3, [sp, #536]
.L359:
	.loc 2 2218 0
	ldr	r3, [sp, #536]
	cmp	r3, #4
	ble	.L360
.L406:
	.loc 2 2231 0
	mov	r0, r0	@ nop
.L361:
	.loc 2 2233 0
	ldr	r3, .L410
	ldr	r3, [r3]
	add	r3, r3, #1
	ldr	r2, .L410
	str	r3, [r2]
	b	.L362
.L357:
	.loc 2 2235 0
	ldr	r3, .L410
	mov	r2, #0
	str	r2, [r3]
	.loc 2 2236 0
	ldr	r3, .L410+4
	ldr	r3, [r3]
	add	r3, r3, #1
	ldr	r2, .L410+4
	str	r3, [r2]
.L362:
	.loc 2 2238 0
	ldr	r3, [sp, #616]
	add	r3, r3, #1
	str	r3, [sp, #616]
.L356:
	.loc 2 2205 0
	ldr	r3, [sp, #616]
	cmp	r3, #0
	bne	.L363
	.loc 2 2240 0
	mov	r0, r0	@ nop
	.loc 2 2242 0
	mov	r0, r0	@ nop
.L364:
.L365:
	.loc 2 2244 0
	mov	r0, r0	@ nop
.L348:
	.loc 2 2247 0
	mov	r3, #1
	str	r3, [sp, #164]
	.loc 2 2248 0
	ldr	r3, [sp, #164]
	str	r3, [sp, #160]
	.loc 2 2249 0
	ldr	r3, [sp, #160]
	str	r3, [sp, #156]
	.loc 2 2250 0
	mov	r3, #5
	str	r3, [sp, #152]
	.loc 2 2251 0
	ldr	r3, [sp, #156]
	cmp	r3, #0
	bge	.L366
	.loc 2 2252 0
	ldr	r3, [sp, #156]
	rsb	r3, r3, #0
	str	r3, [sp, #704]
	b	.L367
.L366:
	.loc 2 2254 0
	ldr	r3, [sp, #156]
	str	r3, [sp, #704]
.L367:
	.loc 2 2256 0
	ldr	r3, [sp, #704]
	str	r3, [sp, #700]
	.loc 2 2257 0
	ldr	r3, [sp, #152]
	str	r3, [sp, #696]
	.loc 2 2258 0
	ldr	r3, [sp, #156]
	mov	r3, r3, lsr #31
	and	r3, r3, #255
	str	r3, [sp, #148]
	.loc 2 2260 0
	mov	r3, #0
	str	r3, [sp, #692]
	.loc 2 2262 0
	ldr	r3, [sp, #696]
	cmp	r3, #10
	bls	.L369
	.loc 2 2263 0
	mov	r3, #11
	str	r3, [sp, #696]
	.loc 2 2265 0
	b	.L369
.L370:
	.loc 2 2266 0
	.syntax divided
@ 2266 "nxtway_gs.c" 1
	1:
        .section .wcet_annot
        .long 1b
        .long 1
        .long 5
                        .text
@ 0 "" 2
	.loc 2 2268 0
	.arm
	.syntax divided
	ldr	r3, [sp, #692]
	add	r3, r3, #1
	str	r3, [sp, #692]
	.loc 2 2270 0
	mov	r3, #1
	str	r3, [sp, #700]
.L369:
	.loc 2 2265 0
	ldr	r3, [sp, #700]
	cmp	r3, #0
	bne	.L370
	.loc 2 2272 0
	ldr	r3, [sp, #692]
	cmp	r3, #0
	bne	.L371
	.loc 2 2274 0
	ldr	r3, [sp, #692]
	add	r3, r3, #1
	str	r3, [sp, #692]
.L371:
	.loc 2 2277 0
	ldr	r3, [sp, #148]
	cmp	r3, #0
	beq	.L373
	.loc 2 2279 0
	ldr	r3, [sp, #692]
	add	r3, r3, #1
	str	r3, [sp, #692]
	.loc 2 2282 0
	b	.L373
.L374:
	.loc 2 2283 0
	.syntax divided
@ 2283 "nxtway_gs.c" 1
	1:
        .section .wcet_annot
        .long 1b
        .long 1
        .long 5
                        .text
@ 0 "" 2
	.loc 2 2285 0
	.arm
	.syntax divided
	ldr	r3, [sp, #692]
	add	r3, r3, #1
	str	r3, [sp, #692]
.L373:
	.loc 2 2282 0
	ldr	r2, [sp, #692]
	ldr	r3, [sp, #696]
	cmp	r2, r3
	bcc	.L374
	.loc 2 2288 0
	mov	r3, #5
	str	r3, [sp, #612]
	.loc 2 2289 0
	b	.L375
.L382:
	.loc 2 2290 0
	.syntax divided
@ 2290 "nxtway_gs.c" 1
	1:
        .section .wcet_annot
        .long 1b
        .long 1
        .long 5
                        .text
@ 0 "" 2
	.loc 2 2291 0
	.arm
	.syntax divided
	ldr	r3, [sp, #612]
	cmp	r3, #10
	beq	.L376
	.loc 2 2292 0
	mov	r3, #1
	str	r3, [sp, #144]
	.loc 2 2293 0
	ldr	r3, [sp, #144]
	cmp	r3, #0
	blt	.L407
	.loc 2 2294 0
	ldr	r3, [sp, #144]
	cmp	r3, #127
	bgt	.L407
	.loc 2 2295 0
	ldr	r3, .L410
	ldr	r3, [r3]
	cmp	r3, #0
	blt	.L407
	.loc 2 2296 0
	ldr	r3, .L410
	ldr	r3, [r3]
	cmp	r3, #15
	bgt	.L407
	.loc 2 2297 0
	ldr	r3, .L410+4
	ldr	r3, [r3]
	cmp	r3, #0
	blt	.L407
	.loc 2 2298 0
	ldr	r3, .L410+4
	ldr	r3, [r3]
	cmp	r3, #7
	bgt	.L407
	.loc 2 2301 0
	mov	r3, #0
	str	r3, [sp, #532]
	.loc 2 2302 0
	b	.L378
.L379:
	.loc 2 2303 0
	.syntax divided
@ 2303 "nxtway_gs.c" 1
	1:
        .section .wcet_annot
        .long 1b
        .long 1
        .long 5
                        .text
@ 0 "" 2
	.loc 2 2307 0
	.arm
	.syntax divided
	ldr	r3, [sp, #532]
	add	r3, r3, #1
	str	r3, [sp, #532]
.L378:
	.loc 2 2302 0
	ldr	r3, [sp, #532]
	cmp	r3, #4
	ble	.L379
.L407:
	.loc 2 2315 0
	mov	r0, r0	@ nop
.L380:
	.loc 2 2317 0
	ldr	r3, .L410
	ldr	r3, [r3]
	add	r3, r3, #1
	ldr	r2, .L410
	str	r3, [r2]
	b	.L381
.L376:
	.loc 2 2319 0
	ldr	r3, .L410
	mov	r2, #0
	str	r2, [r3]
	.loc 2 2320 0
	ldr	r3, .L410+4
	ldr	r3, [r3]
	add	r3, r3, #1
	ldr	r2, .L410+4
	str	r3, [r2]
.L381:
	.loc 2 2322 0
	ldr	r3, [sp, #612]
	add	r3, r3, #1
	str	r3, [sp, #612]
.L375:
	.loc 2 2289 0
	ldr	r3, [sp, #612]
	cmp	r3, #0
	bne	.L382
	.loc 2 2324 0
	mov	r0, r0	@ nop
	.loc 2 2326 0
	mov	r0, r0	@ nop
.L383:
.L384:
	.loc 2 2328 0
	mov	r0, r0	@ nop
.L385:
	.loc 2 2330 0
	ldr	r3, .L410+8
	mov	r2, #0
	str	r2, [r3]
	.loc 2 2332 0
	mov	r0, r0	@ nop
.L63:
	.loc 2 920 0
	ldr	r3, [sp, #512]
	cmp	r3, #29
	ble	.L386
	.loc 2 2339 0
	mov	r0, r0	@ nop
	add	sp, sp, #864
	.cfi_def_cfa_offset 0
	@ sp needed
	bx	lr
.L411:
	.align	2
.L410:
	.word	display_x
	.word	display_y
	.word	display_tick
	.cfi_endproc
.LFE29:
	.size	TaskMainOSEK_Task_Background, .-TaskMainOSEK_Task_Background
	.align	2
	.global	main
	.type	main, %function
main:
.LFB30:
	.loc 2 2342 0
	.cfi_startproc
	@ Function supports interworking.
	@ args = 0, pretend = 0, frame = 0
	@ frame_needed = 0, uses_anonymous_args = 0
	stmfd	sp!, {r4, lr}
	.cfi_def_cfa_offset 8
	.cfi_offset 4, -8
	.cfi_offset 14, -4
	.loc 2 2345 0
	bl	TaskMainOSEK_Task_Background
	.loc 2 2347 0
	mov	r0, r0	@ nop
	ldmfd	sp!, {r4, lr}
	.cfi_restore 14
	.cfi_restore 4
	.cfi_def_cfa_offset 0
	bx	lr
	.cfi_endproc
.LFE30:
	.size	main, .-main
.Letext0: